Archive member included to satisfy reference by file (symbol)

c:/siliconlabs/simplicitystudio/v5/developer/toolchains/gnu_arm/12.2.rel1_2023.7/bin/../lib/gcc/arm-none-eabi/12.2.1/thumb/v8-m.main+fp/hard\libgcc.a(_aeabi_uldivmod.o)
                              ./gecko_sdk_4.4.3/app/common/util/app_timer/app_timer.o (__aeabi_uldivmod)
c:/siliconlabs/simplicitystudio/v5/developer/toolchains/gnu_arm/12.2.rel1_2023.7/bin/../lib/gcc/arm-none-eabi/12.2.1/thumb/v8-m.main+fp/hard\libgcc.a(_udivmoddi4.o)
                              c:/siliconlabs/simplicitystudio/v5/developer/toolchains/gnu_arm/12.2.rel1_2023.7/bin/../lib/gcc/arm-none-eabi/12.2.1/thumb/v8-m.main+fp/hard\libgcc.a(_aeabi_uldivmod.o) (__udivmoddi4)
c:/siliconlabs/simplicitystudio/v5/developer/toolchains/gnu_arm/12.2.rel1_2023.7/bin/../lib/gcc/arm-none-eabi/12.2.1/thumb/v8-m.main+fp/hard\libgcc.a(_dvmd_tls.o)
                              c:/siliconlabs/simplicitystudio/v5/developer/toolchains/gnu_arm/12.2.rel1_2023.7/bin/../lib/gcc/arm-none-eabi/12.2.1/thumb/v8-m.main+fp/hard\libgcc.a(_aeabi_uldivmod.o) (__aeabi_ldiv0)
c:/siliconlabs/simplicitystudio/v5/developer/toolchains/gnu_arm/12.2.rel1_2023.7/bin/../lib/gcc/arm-none-eabi/12.2.1/thumb/v8-m.main+fp/hard\libc_nano.a(libc_a-exit.o)
                              c:/siliconlabs/simplicitystudio/v5/developer/toolchains/gnu_arm/12.2.rel1_2023.7/bin/../lib/gcc/arm-none-eabi/12.2.1/thumb/v8-m.main+fp/hard/crt0.o (exit)
c:/siliconlabs/simplicitystudio/v5/developer/toolchains/gnu_arm/12.2.rel1_2023.7/bin/../lib/gcc/arm-none-eabi/12.2.1/thumb/v8-m.main+fp/hard\libc_nano.a(libc_a-findfp.o)
                              c:/siliconlabs/simplicitystudio/v5/developer/toolchains/gnu_arm/12.2.rel1_2023.7/bin/../lib/gcc/arm-none-eabi/12.2.1/thumb/v8-m.main+fp/hard\libc_nano.a(libc_a-exit.o) (__stdio_exit_handler)
c:/siliconlabs/simplicitystudio/v5/developer/toolchains/gnu_arm/12.2.rel1_2023.7/bin/../lib/gcc/arm-none-eabi/12.2.1/thumb/v8-m.main+fp/hard\libc_nano.a(libc_a-fwalk.o)
                              c:/siliconlabs/simplicitystudio/v5/developer/toolchains/gnu_arm/12.2.rel1_2023.7/bin/../lib/gcc/arm-none-eabi/12.2.1/thumb/v8-m.main+fp/hard\libc_nano.a(libc_a-findfp.o) (_fwalk_sglue)
c:/siliconlabs/simplicitystudio/v5/developer/toolchains/gnu_arm/12.2.rel1_2023.7/bin/../lib/gcc/arm-none-eabi/12.2.1/thumb/v8-m.main+fp/hard\libc_nano.a(libc_a-setvbuf.o)
                              ./gecko_sdk_4.4.3/platform/service/iostream/src/sl_iostream_stdlib_config.o (setvbuf)
c:/siliconlabs/simplicitystudio/v5/developer/toolchains/gnu_arm/12.2.rel1_2023.7/bin/../lib/gcc/arm-none-eabi/12.2.1/thumb/v8-m.main+fp/hard\libc_nano.a(libc_a-stdio.o)
                              c:/siliconlabs/simplicitystudio/v5/developer/toolchains/gnu_arm/12.2.rel1_2023.7/bin/../lib/gcc/arm-none-eabi/12.2.1/thumb/v8-m.main+fp/hard\libc_nano.a(libc_a-findfp.o) (__sread)
c:/siliconlabs/simplicitystudio/v5/developer/toolchains/gnu_arm/12.2.rel1_2023.7/bin/../lib/gcc/arm-none-eabi/12.2.1/thumb/v8-m.main+fp/hard\libc_nano.a(libc_a-vprintf.o)
                              ./gecko_sdk_4.4.3/platform/service/iostream/src/sl_iostream.o (vprintf)
c:/siliconlabs/simplicitystudio/v5/developer/toolchains/gnu_arm/12.2.rel1_2023.7/bin/../lib/gcc/arm-none-eabi/12.2.1/thumb/v8-m.main+fp/hard\libc_nano.a(libc_a-memset.o)
                              c:/siliconlabs/simplicitystudio/v5/developer/toolchains/gnu_arm/12.2.rel1_2023.7/bin/../lib/gcc/arm-none-eabi/12.2.1/thumb/v8-m.main+fp/hard/crt0.o (memset)
c:/siliconlabs/simplicitystudio/v5/developer/toolchains/gnu_arm/12.2.rel1_2023.7/bin/../lib/gcc/arm-none-eabi/12.2.1/thumb/v8-m.main+fp/hard\libc_nano.a(libc_a-closer.o)
                              c:/siliconlabs/simplicitystudio/v5/developer/toolchains/gnu_arm/12.2.rel1_2023.7/bin/../lib/gcc/arm-none-eabi/12.2.1/thumb/v8-m.main+fp/hard\libc_nano.a(libc_a-stdio.o) (_close_r)
c:/siliconlabs/simplicitystudio/v5/developer/toolchains/gnu_arm/12.2.rel1_2023.7/bin/../lib/gcc/arm-none-eabi/12.2.1/thumb/v8-m.main+fp/hard\libc_nano.a(libc_a-reent.o)
                              c:/siliconlabs/simplicitystudio/v5/developer/toolchains/gnu_arm/12.2.rel1_2023.7/bin/../lib/gcc/arm-none-eabi/12.2.1/thumb/v8-m.main+fp/hard\libc_nano.a(libc_a-closer.o) (errno)
c:/siliconlabs/simplicitystudio/v5/developer/toolchains/gnu_arm/12.2.rel1_2023.7/bin/../lib/gcc/arm-none-eabi/12.2.1/thumb/v8-m.main+fp/hard\libc_nano.a(libc_a-impure.o)
                              ./gecko_sdk_4.4.3/platform/service/iostream/src/sl_iostream_stdlib_config.o (_impure_ptr)
c:/siliconlabs/simplicitystudio/v5/developer/toolchains/gnu_arm/12.2.rel1_2023.7/bin/../lib/gcc/arm-none-eabi/12.2.1/thumb/v8-m.main+fp/hard\libc_nano.a(libc_a-lseekr.o)
                              c:/siliconlabs/simplicitystudio/v5/developer/toolchains/gnu_arm/12.2.rel1_2023.7/bin/../lib/gcc/arm-none-eabi/12.2.1/thumb/v8-m.main+fp/hard\libc_nano.a(libc_a-stdio.o) (_lseek_r)
c:/siliconlabs/simplicitystudio/v5/developer/toolchains/gnu_arm/12.2.rel1_2023.7/bin/../lib/gcc/arm-none-eabi/12.2.1/thumb/v8-m.main+fp/hard\libc_nano.a(libc_a-readr.o)
                              c:/siliconlabs/simplicitystudio/v5/developer/toolchains/gnu_arm/12.2.rel1_2023.7/bin/../lib/gcc/arm-none-eabi/12.2.1/thumb/v8-m.main+fp/hard\libc_nano.a(libc_a-stdio.o) (_read_r)
c:/siliconlabs/simplicitystudio/v5/developer/toolchains/gnu_arm/12.2.rel1_2023.7/bin/../lib/gcc/arm-none-eabi/12.2.1/thumb/v8-m.main+fp/hard\libc_nano.a(libc_a-writer.o)
                              c:/siliconlabs/simplicitystudio/v5/developer/toolchains/gnu_arm/12.2.rel1_2023.7/bin/../lib/gcc/arm-none-eabi/12.2.1/thumb/v8-m.main+fp/hard\libc_nano.a(libc_a-stdio.o) (_write_r)
c:/siliconlabs/simplicitystudio/v5/developer/toolchains/gnu_arm/12.2.rel1_2023.7/bin/../lib/gcc/arm-none-eabi/12.2.1/thumb/v8-m.main+fp/hard\libc_nano.a(libc_a-init.o)
                              c:/siliconlabs/simplicitystudio/v5/developer/toolchains/gnu_arm/12.2.rel1_2023.7/bin/../lib/gcc/arm-none-eabi/12.2.1/thumb/v8-m.main+fp/hard/crt0.o (__libc_init_array)
c:/siliconlabs/simplicitystudio/v5/developer/toolchains/gnu_arm/12.2.rel1_2023.7/bin/../lib/gcc/arm-none-eabi/12.2.1/thumb/v8-m.main+fp/hard\libc_nano.a(libc_a-lock.o)
                              c:/siliconlabs/simplicitystudio/v5/developer/toolchains/gnu_arm/12.2.rel1_2023.7/bin/../lib/gcc/arm-none-eabi/12.2.1/thumb/v8-m.main+fp/hard\libc_nano.a(libc_a-findfp.o) (__retarget_lock_init_recursive)
c:/siliconlabs/simplicitystudio/v5/developer/toolchains/gnu_arm/12.2.rel1_2023.7/bin/../lib/gcc/arm-none-eabi/12.2.1/thumb/v8-m.main+fp/hard\libc_nano.a(libc_a-strcmp.o)
                              ./autogen/sl_iostream_handles.o (strcmp)
c:/siliconlabs/simplicitystudio/v5/developer/toolchains/gnu_arm/12.2.rel1_2023.7/bin/../lib/gcc/arm-none-eabi/12.2.1/thumb/v8-m.main+fp/hard\libc_nano.a(libc_a-freer.o)
                              c:/siliconlabs/simplicitystudio/v5/developer/toolchains/gnu_arm/12.2.rel1_2023.7/bin/../lib/gcc/arm-none-eabi/12.2.1/thumb/v8-m.main+fp/hard\libc_nano.a(libc_a-setvbuf.o) (_free_r)
c:/siliconlabs/simplicitystudio/v5/developer/toolchains/gnu_arm/12.2.rel1_2023.7/bin/../lib/gcc/arm-none-eabi/12.2.1/thumb/v8-m.main+fp/hard\libc_nano.a(libc_a-malloc.o)
                              c:/siliconlabs/simplicitystudio/v5/developer/toolchains/gnu_arm/12.2.rel1_2023.7/bin/../lib/gcc/arm-none-eabi/12.2.1/thumb/v8-m.main+fp/hard\libc_nano.a(libc_a-setvbuf.o) (malloc)
c:/siliconlabs/simplicitystudio/v5/developer/toolchains/gnu_arm/12.2.rel1_2023.7/bin/../lib/gcc/arm-none-eabi/12.2.1/thumb/v8-m.main+fp/hard\libc_nano.a(libc_a-mallocr.o)
                              c:/siliconlabs/simplicitystudio/v5/developer/toolchains/gnu_arm/12.2.rel1_2023.7/bin/../lib/gcc/arm-none-eabi/12.2.1/thumb/v8-m.main+fp/hard\libc_nano.a(libc_a-findfp.o) (_malloc_r)
c:/siliconlabs/simplicitystudio/v5/developer/toolchains/gnu_arm/12.2.rel1_2023.7/bin/../lib/gcc/arm-none-eabi/12.2.1/thumb/v8-m.main+fp/hard\libc_nano.a(libc_a-mlock.o)
                              c:/siliconlabs/simplicitystudio/v5/developer/toolchains/gnu_arm/12.2.rel1_2023.7/bin/../lib/gcc/arm-none-eabi/12.2.1/thumb/v8-m.main+fp/hard\libc_nano.a(libc_a-freer.o) (__malloc_lock)
c:/siliconlabs/simplicitystudio/v5/developer/toolchains/gnu_arm/12.2.rel1_2023.7/bin/../lib/gcc/arm-none-eabi/12.2.1/thumb/v8-m.main+fp/hard\libc_nano.a(libc_a-nano-vfprintf.o)
                              c:/siliconlabs/simplicitystudio/v5/developer/toolchains/gnu_arm/12.2.rel1_2023.7/bin/../lib/gcc/arm-none-eabi/12.2.1/thumb/v8-m.main+fp/hard\libc_nano.a(libc_a-vprintf.o) (_vfprintf_r)
c:/siliconlabs/simplicitystudio/v5/developer/toolchains/gnu_arm/12.2.rel1_2023.7/bin/../lib/gcc/arm-none-eabi/12.2.1/thumb/v8-m.main+fp/hard\libc_nano.a(libc_a-nano-vfprintf_i.o)
                              c:/siliconlabs/simplicitystudio/v5/developer/toolchains/gnu_arm/12.2.rel1_2023.7/bin/../lib/gcc/arm-none-eabi/12.2.1/thumb/v8-m.main+fp/hard\libc_nano.a(libc_a-nano-vfprintf.o) (_printf_i)
c:/siliconlabs/simplicitystudio/v5/developer/toolchains/gnu_arm/12.2.rel1_2023.7/bin/../lib/gcc/arm-none-eabi/12.2.1/thumb/v8-m.main+fp/hard\libc_nano.a(libc_a-fflush.o)
                              c:/siliconlabs/simplicitystudio/v5/developer/toolchains/gnu_arm/12.2.rel1_2023.7/bin/../lib/gcc/arm-none-eabi/12.2.1/thumb/v8-m.main+fp/hard\libc_nano.a(libc_a-findfp.o) (_fflush_r)
c:/siliconlabs/simplicitystudio/v5/developer/toolchains/gnu_arm/12.2.rel1_2023.7/bin/../lib/gcc/arm-none-eabi/12.2.1/thumb/v8-m.main+fp/hard\libc_nano.a(libc_a-fvwrite.o)
                              c:/siliconlabs/simplicitystudio/v5/developer/toolchains/gnu_arm/12.2.rel1_2023.7/bin/../lib/gcc/arm-none-eabi/12.2.1/thumb/v8-m.main+fp/hard\libc_nano.a(libc_a-nano-vfprintf.o) (__sfvwrite_r)
c:/siliconlabs/simplicitystudio/v5/developer/toolchains/gnu_arm/12.2.rel1_2023.7/bin/../lib/gcc/arm-none-eabi/12.2.1/thumb/v8-m.main+fp/hard\libc_nano.a(libc_a-makebuf.o)
                              c:/siliconlabs/simplicitystudio/v5/developer/toolchains/gnu_arm/12.2.rel1_2023.7/bin/../lib/gcc/arm-none-eabi/12.2.1/thumb/v8-m.main+fp/hard\libc_nano.a(libc_a-setvbuf.o) (__swhatbuf_r)
c:/siliconlabs/simplicitystudio/v5/developer/toolchains/gnu_arm/12.2.rel1_2023.7/bin/../lib/gcc/arm-none-eabi/12.2.1/thumb/v8-m.main+fp/hard\libc_nano.a(libc_a-wbuf.o)
                              c:/siliconlabs/simplicitystudio/v5/developer/toolchains/gnu_arm/12.2.rel1_2023.7/bin/../lib/gcc/arm-none-eabi/12.2.1/thumb/v8-m.main+fp/hard\libc_nano.a(libc_a-nano-vfprintf.o) (__swbuf_r)
c:/siliconlabs/simplicitystudio/v5/developer/toolchains/gnu_arm/12.2.rel1_2023.7/bin/../lib/gcc/arm-none-eabi/12.2.1/thumb/v8-m.main+fp/hard\libc_nano.a(libc_a-wsetup.o)
                              c:/siliconlabs/simplicitystudio/v5/developer/toolchains/gnu_arm/12.2.rel1_2023.7/bin/../lib/gcc/arm-none-eabi/12.2.1/thumb/v8-m.main+fp/hard\libc_nano.a(libc_a-nano-vfprintf.o) (__swsetup_r)
c:/siliconlabs/simplicitystudio/v5/developer/toolchains/gnu_arm/12.2.rel1_2023.7/bin/../lib/gcc/arm-none-eabi/12.2.1/thumb/v8-m.main+fp/hard\libc_nano.a(libc_a-memmove.o)
                              c:/siliconlabs/simplicitystudio/v5/developer/toolchains/gnu_arm/12.2.rel1_2023.7/bin/../lib/gcc/arm-none-eabi/12.2.1/thumb/v8-m.main+fp/hard\libc_nano.a(libc_a-fvwrite.o) (memmove)
c:/siliconlabs/simplicitystudio/v5/developer/toolchains/gnu_arm/12.2.rel1_2023.7/bin/../lib/gcc/arm-none-eabi/12.2.1/thumb/v8-m.main+fp/hard\libc_nano.a(libc_a-fstatr.o)
                              c:/siliconlabs/simplicitystudio/v5/developer/toolchains/gnu_arm/12.2.rel1_2023.7/bin/../lib/gcc/arm-none-eabi/12.2.1/thumb/v8-m.main+fp/hard\libc_nano.a(libc_a-makebuf.o) (_fstat_r)
c:/siliconlabs/simplicitystudio/v5/developer/toolchains/gnu_arm/12.2.rel1_2023.7/bin/../lib/gcc/arm-none-eabi/12.2.1/thumb/v8-m.main+fp/hard\libc_nano.a(libc_a-isattyr.o)
                              c:/siliconlabs/simplicitystudio/v5/developer/toolchains/gnu_arm/12.2.rel1_2023.7/bin/../lib/gcc/arm-none-eabi/12.2.1/thumb/v8-m.main+fp/hard\libc_nano.a(libc_a-makebuf.o) (_isatty_r)
c:/siliconlabs/simplicitystudio/v5/developer/toolchains/gnu_arm/12.2.rel1_2023.7/bin/../lib/gcc/arm-none-eabi/12.2.1/thumb/v8-m.main+fp/hard\libc_nano.a(libc_a-sbrkr.o)
                              c:/siliconlabs/simplicitystudio/v5/developer/toolchains/gnu_arm/12.2.rel1_2023.7/bin/../lib/gcc/arm-none-eabi/12.2.1/thumb/v8-m.main+fp/hard\libc_nano.a(libc_a-mallocr.o) (_sbrk_r)
c:/siliconlabs/simplicitystudio/v5/developer/toolchains/gnu_arm/12.2.rel1_2023.7/bin/../lib/gcc/arm-none-eabi/12.2.1/thumb/v8-m.main+fp/hard\libc_nano.a(libc_a-memchr-stub.o)
                              c:/siliconlabs/simplicitystudio/v5/developer/toolchains/gnu_arm/12.2.rel1_2023.7/bin/../lib/gcc/arm-none-eabi/12.2.1/thumb/v8-m.main+fp/hard\libc_nano.a(libc_a-nano-vfprintf.o) (memchr)
c:/siliconlabs/simplicitystudio/v5/developer/toolchains/gnu_arm/12.2.rel1_2023.7/bin/../lib/gcc/arm-none-eabi/12.2.1/thumb/v8-m.main+fp/hard\libc_nano.a(libc_a-memcpy-stub.o)
                              c:/siliconlabs/simplicitystudio/v5/developer/toolchains/gnu_arm/12.2.rel1_2023.7/bin/../lib/gcc/arm-none-eabi/12.2.1/thumb/v8-m.main+fp/hard\libc_nano.a(libc_a-fvwrite.o) (memcpy)
c:/siliconlabs/simplicitystudio/v5/developer/toolchains/gnu_arm/12.2.rel1_2023.7/bin/../lib/gcc/arm-none-eabi/12.2.1/thumb/v8-m.main+fp/hard\libc_nano.a(libc_a-reallocr.o)
                              c:/siliconlabs/simplicitystudio/v5/developer/toolchains/gnu_arm/12.2.rel1_2023.7/bin/../lib/gcc/arm-none-eabi/12.2.1/thumb/v8-m.main+fp/hard\libc_nano.a(libc_a-fvwrite.o) (_realloc_r)
c:/siliconlabs/simplicitystudio/v5/developer/toolchains/gnu_arm/12.2.rel1_2023.7/bin/../lib/gcc/arm-none-eabi/12.2.1/thumb/v8-m.main+fp/hard\libc_nano.a(libc_a-msizer.o)
                              c:/siliconlabs/simplicitystudio/v5/developer/toolchains/gnu_arm/12.2.rel1_2023.7/bin/../lib/gcc/arm-none-eabi/12.2.1/thumb/v8-m.main+fp/hard\libc_nano.a(libc_a-reallocr.o) (_malloc_usable_size_r)

Discarded input sections

 .text          0x00000000        0x0 c:/siliconlabs/simplicitystudio/v5/developer/toolchains/gnu_arm/12.2.rel1_2023.7/bin/../lib/gcc/arm-none-eabi/12.2.1/thumb/v8-m.main+fp/hard/crti.o
 .data          0x00000000        0x0 c:/siliconlabs/simplicitystudio/v5/developer/toolchains/gnu_arm/12.2.rel1_2023.7/bin/../lib/gcc/arm-none-eabi/12.2.1/thumb/v8-m.main+fp/hard/crti.o
 .bss           0x00000000        0x0 c:/siliconlabs/simplicitystudio/v5/developer/toolchains/gnu_arm/12.2.rel1_2023.7/bin/../lib/gcc/arm-none-eabi/12.2.1/thumb/v8-m.main+fp/hard/crti.o
 .text          0x00000000        0x0 c:/siliconlabs/simplicitystudio/v5/developer/toolchains/gnu_arm/12.2.rel1_2023.7/bin/../lib/gcc/arm-none-eabi/12.2.1/thumb/v8-m.main+fp/hard/crtbegin.o
 .data          0x00000000        0x0 c:/siliconlabs/simplicitystudio/v5/developer/toolchains/gnu_arm/12.2.rel1_2023.7/bin/../lib/gcc/arm-none-eabi/12.2.1/thumb/v8-m.main+fp/hard/crtbegin.o
 .bss           0x00000000        0x0 c:/siliconlabs/simplicitystudio/v5/developer/toolchains/gnu_arm/12.2.rel1_2023.7/bin/../lib/gcc/arm-none-eabi/12.2.1/thumb/v8-m.main+fp/hard/crtbegin.o
 .rodata.all_implied_fbits
                0x00000000       0x24 c:/siliconlabs/simplicitystudio/v5/developer/toolchains/gnu_arm/12.2.rel1_2023.7/bin/../lib/gcc/arm-none-eabi/12.2.1/thumb/v8-m.main+fp/hard/crtbegin.o
 .data.__dso_handle
                0x00000000        0x4 c:/siliconlabs/simplicitystudio/v5/developer/toolchains/gnu_arm/12.2.rel1_2023.7/bin/../lib/gcc/arm-none-eabi/12.2.1/thumb/v8-m.main+fp/hard/crtbegin.o
 .data          0x00000000        0x0 c:/siliconlabs/simplicitystudio/v5/developer/toolchains/gnu_arm/12.2.rel1_2023.7/bin/../lib/gcc/arm-none-eabi/12.2.1/thumb/v8-m.main+fp/hard/crt0.o
 .bss           0x00000000        0x0 c:/siliconlabs/simplicitystudio/v5/developer/toolchains/gnu_arm/12.2.rel1_2023.7/bin/../lib/gcc/arm-none-eabi/12.2.1/thumb/v8-m.main+fp/hard/crt0.o
 .ARM.extab     0x00000000        0x0 c:/siliconlabs/simplicitystudio/v5/developer/toolchains/gnu_arm/12.2.rel1_2023.7/bin/../lib/gcc/arm-none-eabi/12.2.1/thumb/v8-m.main+fp/hard/crt0.o
 .text          0x00000000        0x0 ./app.o
 .data          0x00000000        0x0 ./app.o
 .bss           0x00000000        0x0 ./app.o
 .text          0x00000000        0x0 ./iadc.o
 .data          0x00000000        0x0 ./iadc.o
 .bss           0x00000000        0x0 ./iadc.o
 .text.analog_input_deinitialize
                0x00000000       0x80 ./iadc.o
 .text.common_hal_analogio_analogin_get_reference_voltage
                0x00000000       0x18 ./iadc.o
 .text          0x00000000        0x0 ./main.o
 .data          0x00000000        0x0 ./main.o
 .bss           0x00000000        0x0 ./main.o
 .text          0x00000000        0x0 ./thermometer.o
 .data          0x00000000        0x0 ./thermometer.o
 .bss           0x00000000        0x0 ./thermometer.o
 .text          0x00000000        0x0 ./autogen/sl_board_default_init.o
 .data          0x00000000        0x0 ./autogen/sl_board_default_init.o
 .bss           0x00000000        0x0 ./autogen/sl_board_default_init.o
 .text          0x00000000        0x0 ./autogen/sl_device_init_clocks.o
 .data          0x00000000        0x0 ./autogen/sl_device_init_clocks.o
 .bss           0x00000000        0x0 ./autogen/sl_device_init_clocks.o
 .text          0x00000000        0x0 ./autogen/sl_event_handler.o
 .data          0x00000000        0x0 ./autogen/sl_event_handler.o
 .bss           0x00000000        0x0 ./autogen/sl_event_handler.o
 .text          0x00000000        0x0 ./autogen/sl_i2cspm_init.o
 .data          0x00000000        0x0 ./autogen/sl_i2cspm_init.o
 .bss           0x00000000        0x0 ./autogen/sl_i2cspm_init.o
 .text          0x00000000        0x0 ./autogen/sl_iostream_handles.o
 .data          0x00000000        0x0 ./autogen/sl_iostream_handles.o
 .bss           0x00000000        0x0 ./autogen/sl_iostream_handles.o
 .data.sl_iostream_instances_info
                0x00000000        0x4 ./autogen/sl_iostream_handles.o
 .rodata.sl_iostream_instances_count
                0x00000000        0x4 ./autogen/sl_iostream_handles.o
 .text.sl_iostream_get_handle
                0x00000000       0x4c ./autogen/sl_iostream_handles.o
 .debug_info    0x00000000      0x2bc ./autogen/sl_iostream_handles.o
 .debug_abbrev  0x00000000      0x149 ./autogen/sl_iostream_handles.o
 .debug_loc     0x00000000       0x38 ./autogen/sl_iostream_handles.o
 .debug_aranges
                0x00000000       0x20 ./autogen/sl_iostream_handles.o
 .debug_ranges  0x00000000       0x10 ./autogen/sl_iostream_handles.o
 .debug_line    0x00000000      0x320 ./autogen/sl_iostream_handles.o
 .debug_str     0x00000000      0x2f8 ./autogen/sl_iostream_handles.o
 .comment       0x00000000       0x46 ./autogen/sl_iostream_handles.o
 .debug_frame   0x00000000       0x2c ./autogen/sl_iostream_handles.o
 .ARM.attributes
                0x00000000       0x3a ./autogen/sl_iostream_handles.o
 .text          0x00000000        0x0 ./autogen/sl_power_manager_handler.o
 .data          0x00000000        0x0 ./autogen/sl_power_manager_handler.o
 .bss           0x00000000        0x0 ./autogen/sl_power_manager_handler.o
 .text          0x00000000        0x0 ./gecko_sdk_4.4.3/app/bluetooth/common/sensor_rht/sl_sensor_rht.o
 .data          0x00000000        0x0 ./gecko_sdk_4.4.3/app/bluetooth/common/sensor_rht/sl_sensor_rht.o
 .bss           0x00000000        0x0 ./gecko_sdk_4.4.3/app/bluetooth/common/sensor_rht/sl_sensor_rht.o
 .text.sl_sensor_rht_deinit
                0x00000000       0x18 ./gecko_sdk_4.4.3/app/bluetooth/common/sensor_rht/sl_sensor_rht.o
 .text          0x00000000        0x0 ./gecko_sdk_4.4.3/app/bluetooth/common/sensor_select/sl_sensor_select.o
 .data          0x00000000        0x0 ./gecko_sdk_4.4.3/app/bluetooth/common/sensor_select/sl_sensor_select.o
 .bss           0x00000000        0x0 ./gecko_sdk_4.4.3/app/bluetooth/common/sensor_select/sl_sensor_select.o
 .text          0x00000000        0x0 ./gecko_sdk_4.4.3/app/common/util/app_log/app_log.o
 .data          0x00000000        0x0 ./gecko_sdk_4.4.3/app/common/util/app_log/app_log.o
 .bss           0x00000000        0x0 ./gecko_sdk_4.4.3/app/common/util/app_log/app_log.o
 .text.app_log_check_level
                0x00000000       0x68 ./gecko_sdk_4.4.3/app/common/util/app_log/app_log.o
 .text.app_log_filter_threshold_enable
                0x00000000       0x1c ./gecko_sdk_4.4.3/app/common/util/app_log/app_log.o
 .text.app_log_filter_mask_enable
                0x00000000       0x1c ./gecko_sdk_4.4.3/app/common/util/app_log/app_log.o
 .text.app_log_filter_threshold_set
                0x00000000       0x30 ./gecko_sdk_4.4.3/app/common/util/app_log/app_log.o
 .text.app_log_filter_mask_set
                0x00000000       0x30 ./gecko_sdk_4.4.3/app/common/util/app_log/app_log.o
 .text.app_log_filter_threshold_get
                0x00000000        0xc ./gecko_sdk_4.4.3/app/common/util/app_log/app_log.o
 .text.app_log_filter_mask_get
                0x00000000        0xc ./gecko_sdk_4.4.3/app/common/util/app_log/app_log.o
 .text.app_log_iostream_set
                0x00000000       0x50 ./gecko_sdk_4.4.3/app/common/util/app_log/app_log.o
 .text.app_log_iostream_get
                0x00000000        0xc ./gecko_sdk_4.4.3/app/common/util/app_log/app_log.o
 .rodata        0x00000000        0xa ./gecko_sdk_4.4.3/app/common/util/app_log/app_log.o
 .text._app_log_status_string
                0x00000000       0x50 ./gecko_sdk_4.4.3/app/common/util/app_log/app_log.o
 .text.sl_status_print
                0x00000000       0x24 ./gecko_sdk_4.4.3/app/common/util/app_log/app_log.o
 .text          0x00000000        0x0 ./gecko_sdk_4.4.3/app/common/util/app_timer/app_timer.o
 .data          0x00000000        0x0 ./gecko_sdk_4.4.3/app/common/util/app_timer/app_timer.o
 .bss           0x00000000        0x0 ./gecko_sdk_4.4.3/app/common/util/app_timer/app_timer.o
 .text.sl_sleeptimer_start_timer_ms
                0x00000000       0x44 ./gecko_sdk_4.4.3/app/common/util/app_timer/app_timer.o
 .text.app_timer_start
                0x00000000      0x150 ./gecko_sdk_4.4.3/app/common/util/app_timer/app_timer.o
 .text.app_timer_stop
                0x00000000       0x5c ./gecko_sdk_4.4.3/app/common/util/app_timer/app_timer.o
 .text.app_timer_callback
                0x00000000       0xa8 ./gecko_sdk_4.4.3/app/common/util/app_timer/app_timer.o
 .text.append_app_timer
                0x00000000       0x50 ./gecko_sdk_4.4.3/app/common/util/app_timer/app_timer.o
 .text          0x00000000        0x0 ./gecko_sdk_4.4.3/hardware/board/src/sl_board_control_gpio.o
 .data          0x00000000        0x0 ./gecko_sdk_4.4.3/hardware/board/src/sl_board_control_gpio.o
 .bss           0x00000000        0x0 ./gecko_sdk_4.4.3/hardware/board/src/sl_board_control_gpio.o
 .text.sl_board_enable_vcom
                0x00000000        0x6 ./gecko_sdk_4.4.3/hardware/board/src/sl_board_control_gpio.o
 .text.sl_board_disable_vcom
                0x00000000        0x6 ./gecko_sdk_4.4.3/hardware/board/src/sl_board_control_gpio.o
 .text.sl_board_enable_display
                0x00000000        0x6 ./gecko_sdk_4.4.3/hardware/board/src/sl_board_control_gpio.o
 .text.sl_board_disable_display
                0x00000000        0x6 ./gecko_sdk_4.4.3/hardware/board/src/sl_board_control_gpio.o
 .text.sl_board_disable_sensor
                0x00000000      0x144 ./gecko_sdk_4.4.3/hardware/board/src/sl_board_control_gpio.o
 .text.sl_board_enable_memory
                0x00000000       0x4c ./gecko_sdk_4.4.3/hardware/board/src/sl_board_control_gpio.o
 .text.sl_board_disable_memory
                0x00000000       0x4c ./gecko_sdk_4.4.3/hardware/board/src/sl_board_control_gpio.o
 .text.sl_board_enable_oscillator
                0x00000000       0x38 ./gecko_sdk_4.4.3/hardware/board/src/sl_board_control_gpio.o
 .text.sl_board_disable_oscillator
                0x00000000       0x38 ./gecko_sdk_4.4.3/hardware/board/src/sl_board_control_gpio.o
 .text          0x00000000        0x0 ./gecko_sdk_4.4.3/hardware/board/src/sl_board_init.o
 .data          0x00000000        0x0 ./gecko_sdk_4.4.3/hardware/board/src/sl_board_init.o
 .bss           0x00000000        0x0 ./gecko_sdk_4.4.3/hardware/board/src/sl_board_init.o
 .text          0x00000000        0x0 ./gecko_sdk_4.4.3/hardware/driver/mx25_flash_shutdown/src/sl_mx25_flash_shutdown_usart/sl_mx25_flash_shutdown.o
 .data          0x00000000        0x0 ./gecko_sdk_4.4.3/hardware/driver/mx25_flash_shutdown/src/sl_mx25_flash_shutdown_usart/sl_mx25_flash_shutdown.o
 .bss           0x00000000        0x0 ./gecko_sdk_4.4.3/hardware/driver/mx25_flash_shutdown/src/sl_mx25_flash_shutdown_usart/sl_mx25_flash_shutdown.o
 .text          0x00000000        0x0 ./gecko_sdk_4.4.3/hardware/driver/si70xx/src/sl_si70xx.o
 .data          0x00000000        0x0 ./gecko_sdk_4.4.3/hardware/driver/si70xx/src/sl_si70xx.o
 .bss           0x00000000        0x0 ./gecko_sdk_4.4.3/hardware/driver/si70xx/src/sl_si70xx.o
 .text.sl_si70xx_get_firmware_revision
                0x00000000       0x76 ./gecko_sdk_4.4.3/hardware/driver/si70xx/src/sl_si70xx.o
 .text.sl_si70xx_start_no_hold_measure_rh_and_temp
                0x00000000       0x26 ./gecko_sdk_4.4.3/hardware/driver/si70xx/src/sl_si70xx.o
 .text.sl_si70xx_read_rh_and_temp
                0x00000000       0x6e ./gecko_sdk_4.4.3/hardware/driver/si70xx/src/sl_si70xx.o
 .text.sl_si7013_measure_analog_voltage
                0x00000000       0x6a ./gecko_sdk_4.4.3/hardware/driver/si70xx/src/sl_si70xx.o
 .text.sl_si70xx_start_no_hold_measure
                0x00000000       0x6c ./gecko_sdk_4.4.3/hardware/driver/si70xx/src/sl_si70xx.o
 .text.sl_si70xx_read_data
                0x00000000       0x76 ./gecko_sdk_4.4.3/hardware/driver/si70xx/src/sl_si70xx.o
 .text.sl_si70xx_write_user_register_2
                0x00000000       0x72 ./gecko_sdk_4.4.3/hardware/driver/si70xx/src/sl_si70xx.o
 .text          0x00000000        0x0 ./gecko_sdk_4.4.3/platform/Device/SiliconLabs/EFR32MG24/Source/startup_efr32mg24.o
 .data          0x00000000        0x0 ./gecko_sdk_4.4.3/platform/Device/SiliconLabs/EFR32MG24/Source/startup_efr32mg24.o
 .bss           0x00000000        0x0 ./gecko_sdk_4.4.3/platform/Device/SiliconLabs/EFR32MG24/Source/startup_efr32mg24.o
 .text          0x00000000        0x0 ./gecko_sdk_4.4.3/platform/Device/SiliconLabs/EFR32MG24/Source/system_efr32mg24.o
 .data          0x00000000        0x0 ./gecko_sdk_4.4.3/platform/Device/SiliconLabs/EFR32MG24/Source/system_efr32mg24.o
 .bss           0x00000000        0x0 ./gecko_sdk_4.4.3/platform/Device/SiliconLabs/EFR32MG24/Source/system_efr32mg24.o
 .text.SystemHFRCODPLLClockSet
                0x00000000       0x14 ./gecko_sdk_4.4.3/platform/Device/SiliconLabs/EFR32MG24/Source/system_efr32mg24.o
 .text.SystemLFXOClockSet
                0x00000000       0x14 ./gecko_sdk_4.4.3/platform/Device/SiliconLabs/EFR32MG24/Source/system_efr32mg24.o
 .text          0x00000000        0x0 ./gecko_sdk_4.4.3/platform/common/src/sl_assert.o
 .data          0x00000000        0x0 ./gecko_sdk_4.4.3/platform/common/src/sl_assert.o
 .bss           0x00000000        0x0 ./gecko_sdk_4.4.3/platform/common/src/sl_assert.o
 .text          0x00000000        0x0 ./gecko_sdk_4.4.3/platform/common/src/sl_slist.o
 .data          0x00000000        0x0 ./gecko_sdk_4.4.3/platform/common/src/sl_slist.o
 .bss           0x00000000        0x0 ./gecko_sdk_4.4.3/platform/common/src/sl_slist.o
 .text.sl_slist_push_back
                0x00000000       0x48 ./gecko_sdk_4.4.3/platform/common/src/sl_slist.o
 .text.sl_slist_pop
                0x00000000       0x40 ./gecko_sdk_4.4.3/platform/common/src/sl_slist.o
 .text.sl_slist_insert
                0x00000000       0x38 ./gecko_sdk_4.4.3/platform/common/src/sl_slist.o
 .text.sl_slist_remove
                0x00000000       0x5c ./gecko_sdk_4.4.3/platform/common/src/sl_slist.o
 .text.sl_slist_sort
                0x00000000       0xa8 ./gecko_sdk_4.4.3/platform/common/src/sl_slist.o
 .text          0x00000000        0x0 ./gecko_sdk_4.4.3/platform/common/src/sl_stdio.o
 .data          0x00000000        0x0 ./gecko_sdk_4.4.3/platform/common/src/sl_stdio.o
 .bss           0x00000000        0x0 ./gecko_sdk_4.4.3/platform/common/src/sl_stdio.o
 .text.sl_putchar
                0x00000000       0x22 ./gecko_sdk_4.4.3/platform/common/src/sl_stdio.o
 .text.sl_putchar_std_wrapper
                0x00000000       0x28 ./gecko_sdk_4.4.3/platform/common/src/sl_stdio.o
 .text.sl_getchar
                0x00000000       0x18 ./gecko_sdk_4.4.3/platform/common/src/sl_stdio.o
 .text.sl_getchar_std_wrapper
                0x00000000       0x28 ./gecko_sdk_4.4.3/platform/common/src/sl_stdio.o
 .debug_info    0x00000000      0x272 ./gecko_sdk_4.4.3/platform/common/src/sl_stdio.o
 .debug_abbrev  0x00000000      0x115 ./gecko_sdk_4.4.3/platform/common/src/sl_stdio.o
 .debug_loc     0x00000000       0xe0 ./gecko_sdk_4.4.3/platform/common/src/sl_stdio.o
 .debug_aranges
                0x00000000       0x38 ./gecko_sdk_4.4.3/platform/common/src/sl_stdio.o
 .debug_ranges  0x00000000       0x28 ./gecko_sdk_4.4.3/platform/common/src/sl_stdio.o
 .debug_line    0x00000000      0x2c6 ./gecko_sdk_4.4.3/platform/common/src/sl_stdio.o
 .debug_str     0x00000000      0x2bb ./gecko_sdk_4.4.3/platform/common/src/sl_stdio.o
 .comment       0x00000000       0x46 ./gecko_sdk_4.4.3/platform/common/src/sl_stdio.o
 .debug_frame   0x00000000       0x80 ./gecko_sdk_4.4.3/platform/common/src/sl_stdio.o
 .ARM.attributes
                0x00000000       0x3a ./gecko_sdk_4.4.3/platform/common/src/sl_stdio.o
 .text          0x00000000        0x0 ./gecko_sdk_4.4.3/platform/common/src/sl_syscalls.o
 .data          0x00000000        0x0 ./gecko_sdk_4.4.3/platform/common/src/sl_syscalls.o
 .bss           0x00000000        0x0 ./gecko_sdk_4.4.3/platform/common/src/sl_syscalls.o
 .text._close   0x00000000        0xe ./gecko_sdk_4.4.3/platform/common/src/sl_syscalls.o
 .text._exit    0x00000000        0x8 ./gecko_sdk_4.4.3/platform/common/src/sl_syscalls.o
 .text._fstat   0x00000000        0xe ./gecko_sdk_4.4.3/platform/common/src/sl_syscalls.o
 .text._getpid  0x00000000        0x6 ./gecko_sdk_4.4.3/platform/common/src/sl_syscalls.o
 .text._isatty  0x00000000        0xc ./gecko_sdk_4.4.3/platform/common/src/sl_syscalls.o
 .text._kill    0x00000000       0x10 ./gecko_sdk_4.4.3/platform/common/src/sl_syscalls.o
 .text._lseek   0x00000000       0x10 ./gecko_sdk_4.4.3/platform/common/src/sl_syscalls.o
 .text._read    0x00000000       0x10 ./gecko_sdk_4.4.3/platform/common/src/sl_syscalls.o
 .text._write   0x00000000       0x10 ./gecko_sdk_4.4.3/platform/common/src/sl_syscalls.o
 .text._gettimeofday
                0x00000000        0xe ./gecko_sdk_4.4.3/platform/common/src/sl_syscalls.o
 .debug_info    0x00000000      0x2e9 ./gecko_sdk_4.4.3/platform/common/src/sl_syscalls.o
 .debug_abbrev  0x00000000       0xd9 ./gecko_sdk_4.4.3/platform/common/src/sl_syscalls.o
 .debug_loc     0x00000000      0x180 ./gecko_sdk_4.4.3/platform/common/src/sl_syscalls.o
 .debug_aranges
                0x00000000       0x68 ./gecko_sdk_4.4.3/platform/common/src/sl_syscalls.o
 .debug_ranges  0x00000000       0x58 ./gecko_sdk_4.4.3/platform/common/src/sl_syscalls.o
 .debug_line    0x00000000      0x148 ./gecko_sdk_4.4.3/platform/common/src/sl_syscalls.o
 .debug_str     0x00000000      0x261 ./gecko_sdk_4.4.3/platform/common/src/sl_syscalls.o
 .comment       0x00000000       0x46 ./gecko_sdk_4.4.3/platform/common/src/sl_syscalls.o
 .debug_frame   0x00000000       0xf4 ./gecko_sdk_4.4.3/platform/common/src/sl_syscalls.o
 .ARM.attributes
                0x00000000       0x3a ./gecko_sdk_4.4.3/platform/common/src/sl_syscalls.o
 .text          0x00000000        0x0 ./gecko_sdk_4.4.3/platform/common/toolchain/src/sl_memory.o
 .data          0x00000000        0x0 ./gecko_sdk_4.4.3/platform/common/toolchain/src/sl_memory.o
 .bss           0x00000000        0x0 ./gecko_sdk_4.4.3/platform/common/toolchain/src/sl_memory.o
 .text.sl_memory_get_stack_region
                0x00000000       0x28 ./gecko_sdk_4.4.3/platform/common/toolchain/src/sl_memory.o
 .text.sl_memory_get_heap_region
                0x00000000       0x2c ./gecko_sdk_4.4.3/platform/common/toolchain/src/sl_memory.o
 .text          0x00000000        0x0 ./gecko_sdk_4.4.3/platform/driver/debug/src/sl_debug_swo.o
 .data          0x00000000        0x0 ./gecko_sdk_4.4.3/platform/driver/debug/src/sl_debug_swo.o
 .bss           0x00000000        0x0 ./gecko_sdk_4.4.3/platform/driver/debug/src/sl_debug_swo.o
 .text.sl_debug_swo_disable_itm
                0x00000000       0x28 ./gecko_sdk_4.4.3/platform/driver/debug/src/sl_debug_swo.o
 .text.sl_debug_swo_write_u16
                0x00000000       0x6c ./gecko_sdk_4.4.3/platform/driver/debug/src/sl_debug_swo.o
 .text.sl_debug_swo_write_u32
                0x00000000       0x68 ./gecko_sdk_4.4.3/platform/driver/debug/src/sl_debug_swo.o
 .text          0x00000000        0x0 ./gecko_sdk_4.4.3/platform/driver/i2cspm/src/sl_i2cspm.o
 .data          0x00000000        0x0 ./gecko_sdk_4.4.3/platform/driver/i2cspm/src/sl_i2cspm.o
 .bss           0x00000000        0x0 ./gecko_sdk_4.4.3/platform/driver/i2cspm/src/sl_i2cspm.o
 .text          0x00000000        0x0 ./gecko_sdk_4.4.3/platform/emlib/src/em_burtc.o
 .data          0x00000000        0x0 ./gecko_sdk_4.4.3/platform/emlib/src/em_burtc.o
 .bss           0x00000000        0x0 ./gecko_sdk_4.4.3/platform/emlib/src/em_burtc.o
 .text.BURTC_SyncWait
                0x00000000       0x1c ./gecko_sdk_4.4.3/platform/emlib/src/em_burtc.o
 .text.BURTC_Start
                0x00000000       0x14 ./gecko_sdk_4.4.3/platform/emlib/src/em_burtc.o
 .text.BURTC_Stop
                0x00000000       0x14 ./gecko_sdk_4.4.3/platform/emlib/src/em_burtc.o
 .rodata        0x00000000       0x36 ./gecko_sdk_4.4.3/platform/emlib/src/em_burtc.o
 .text.divToLog2
                0x00000000       0x48 ./gecko_sdk_4.4.3/platform/emlib/src/em_burtc.o
 .text.regSync  0x00000000       0x20 ./gecko_sdk_4.4.3/platform/emlib/src/em_burtc.o
 .text.BURTC_Init
                0x00000000       0xa8 ./gecko_sdk_4.4.3/platform/emlib/src/em_burtc.o
 .text.BURTC_Enable
                0x00000000       0x74 ./gecko_sdk_4.4.3/platform/emlib/src/em_burtc.o
 .text.BURTC_CompareSet
                0x00000000       0x3c ./gecko_sdk_4.4.3/platform/emlib/src/em_burtc.o
 .text.BURTC_CompareGet
                0x00000000       0x2c ./gecko_sdk_4.4.3/platform/emlib/src/em_burtc.o
 .text.BURTC_CounterReset
                0x00000000       0x18 ./gecko_sdk_4.4.3/platform/emlib/src/em_burtc.o
 .text.BURTC_Reset
                0x00000000       0x74 ./gecko_sdk_4.4.3/platform/emlib/src/em_burtc.o
 .debug_info    0x00000000      0x6c4 ./gecko_sdk_4.4.3/platform/emlib/src/em_burtc.o
 .debug_abbrev  0x00000000      0x216 ./gecko_sdk_4.4.3/platform/emlib/src/em_burtc.o
 .debug_loc     0x00000000      0x1c4 ./gecko_sdk_4.4.3/platform/emlib/src/em_burtc.o
 .debug_aranges
                0x00000000       0x70 ./gecko_sdk_4.4.3/platform/emlib/src/em_burtc.o
 .debug_ranges  0x00000000       0x60 ./gecko_sdk_4.4.3/platform/emlib/src/em_burtc.o
 .debug_line    0x00000000      0x54a ./gecko_sdk_4.4.3/platform/emlib/src/em_burtc.o
 .debug_str     0x00000000      0x507 ./gecko_sdk_4.4.3/platform/emlib/src/em_burtc.o
 .comment       0x00000000       0x46 ./gecko_sdk_4.4.3/platform/emlib/src/em_burtc.o
 .debug_frame   0x00000000      0x124 ./gecko_sdk_4.4.3/platform/emlib/src/em_burtc.o
 .ARM.attributes
                0x00000000       0x3a ./gecko_sdk_4.4.3/platform/emlib/src/em_burtc.o
 .text          0x00000000        0x0 ./gecko_sdk_4.4.3/platform/emlib/src/em_cmu.o
 .data          0x00000000        0x0 ./gecko_sdk_4.4.3/platform/emlib/src/em_cmu.o
 .bss           0x00000000        0x0 ./gecko_sdk_4.4.3/platform/emlib/src/em_cmu.o
 .text.CMU_CalibrateStart
                0x00000000       0x10 ./gecko_sdk_4.4.3/platform/emlib/src/em_cmu.o
 .rodata.hfrcoCalTable
                0x00000000      0x190 ./gecko_sdk_4.4.3/platform/emlib/src/em_cmu.o
 .text.CMU_Calibrate
                0x00000000       0x3c ./gecko_sdk_4.4.3/platform/emlib/src/em_cmu.o
 .text.CMU_CalibrateConfig
                0x00000000      0x1c8 ./gecko_sdk_4.4.3/platform/emlib/src/em_cmu.o
 .text.CMU_CalibrateCountGet
                0x00000000       0x28 ./gecko_sdk_4.4.3/platform/emlib/src/em_cmu.o
 .text.CMU_ClkOutPinConfig
                0x00000000      0x218 ./gecko_sdk_4.4.3/platform/emlib/src/em_cmu.o
 .text.sli_em_cmu_SYSTICEXTCLKENSet
                0x00000000       0x4c ./gecko_sdk_4.4.3/platform/emlib/src/em_cmu.o
 .text.sli_em_cmu_SYSTICEXTCLKENClear
                0x00000000       0x4c ./gecko_sdk_4.4.3/platform/emlib/src/em_cmu.o
 .text.CMU_LF_ClockPrecisionGet
                0x00000000       0x80 ./gecko_sdk_4.4.3/platform/emlib/src/em_cmu.o
 .text.CMU_HF_ClockPrecisionGet
                0x00000000       0x4c ./gecko_sdk_4.4.3/platform/emlib/src/em_cmu.o
 .text.CMU_HFRCODPLLBandGet
                0x00000000        0xc ./gecko_sdk_4.4.3/platform/emlib/src/em_cmu.o
 .text.CMU_HFRCODPLLBandSet
                0x00000000      0x178 ./gecko_sdk_4.4.3/platform/emlib/src/em_cmu.o
 .text.CMU_DPLLLock
                0x00000000      0x3c4 ./gecko_sdk_4.4.3/platform/emlib/src/em_cmu.o
 .text.CMU_HFXOStartCrystalSharingLeader
                0x00000000       0xe4 ./gecko_sdk_4.4.3/platform/emlib/src/em_cmu.o
 .text.CMU_HFXOCrystalSharingFollowerInit
                0x00000000      0x15c ./gecko_sdk_4.4.3/platform/emlib/src/em_cmu.o
 .text.CMU_HFXOCTuneSet
                0x00000000       0xb8 ./gecko_sdk_4.4.3/platform/emlib/src/em_cmu.o
 .text.CMU_HFXOCTuneGet
                0x00000000       0x78 ./gecko_sdk_4.4.3/platform/emlib/src/em_cmu.o
 .text.CMU_HFXOCTuneDeltaSet
                0x00000000       0x18 ./gecko_sdk_4.4.3/platform/emlib/src/em_cmu.o
 .text.CMU_HFXOCoreBiasCurrentCalibrate
                0x00000000       0x9c ./gecko_sdk_4.4.3/platform/emlib/src/em_cmu.o
 .text.CMU_LFXOPrecisionGet
                0x00000000        0xc ./gecko_sdk_4.4.3/platform/emlib/src/em_cmu.o
 .text.CMU_HFXOPrecisionGet
                0x00000000        0xc ./gecko_sdk_4.4.3/platform/emlib/src/em_cmu.o
 .text.CMU_LFRCOSetPrecision
                0x00000000       0xd0 ./gecko_sdk_4.4.3/platform/emlib/src/em_cmu.o
 .text.CMU_OscillatorTuningGet
                0x00000000       0xb8 ./gecko_sdk_4.4.3/platform/emlib/src/em_cmu.o
 .text.CMU_OscillatorTuningSet
                0x00000000      0x220 ./gecko_sdk_4.4.3/platform/emlib/src/em_cmu.o
 .text.CMU_PCNTClockExternalSet
                0x00000000       0x30 ./gecko_sdk_4.4.3/platform/emlib/src/em_cmu.o
 .text.CMU_HFRCOEM23BandGet
                0x00000000        0xc ./gecko_sdk_4.4.3/platform/emlib/src/em_cmu.o
 .text.CMU_HFRCOEM23BandSet
                0x00000000       0x84 ./gecko_sdk_4.4.3/platform/emlib/src/em_cmu.o
 .text.HFRCOEM23DevinfoGet
                0x00000000      0x124 ./gecko_sdk_4.4.3/platform/emlib/src/em_cmu.o
 .text.HFRCODPLLDevinfoGet
                0x00000000      0x1bc ./gecko_sdk_4.4.3/platform/emlib/src/em_cmu.o
 .text          0x00000000        0x0 ./gecko_sdk_4.4.3/platform/emlib/src/em_core.o
 .data          0x00000000        0x0 ./gecko_sdk_4.4.3/platform/emlib/src/em_core.o
 .bss           0x00000000        0x0 ./gecko_sdk_4.4.3/platform/emlib/src/em_core.o
 .text.__NVIC_GetPriority
                0x00000000       0x48 ./gecko_sdk_4.4.3/platform/emlib/src/em_core.o
 .text.CORE_CriticalDisableIrq
                0x00000000        0x8 ./gecko_sdk_4.4.3/platform/emlib/src/em_core.o
 .text.CORE_CriticalEnableIrq
                0x00000000        0x8 ./gecko_sdk_4.4.3/platform/emlib/src/em_core.o
 .text.CORE_YieldCritical
                0x00000000       0x26 ./gecko_sdk_4.4.3/platform/emlib/src/em_core.o
 .text.CORE_AtomicDisableIrq
                0x00000000       0x14 ./gecko_sdk_4.4.3/platform/emlib/src/em_core.o
 .text.CORE_AtomicEnableIrq
                0x00000000       0x14 ./gecko_sdk_4.4.3/platform/emlib/src/em_core.o
 .text.CORE_YieldAtomic
                0x00000000       0x36 ./gecko_sdk_4.4.3/platform/emlib/src/em_core.o
 .text.CORE_EnterNvicMask
                0x00000000       0x34 ./gecko_sdk_4.4.3/platform/emlib/src/em_core.o
 .text.CORE_NvicDisableMask
                0x00000000       0x28 ./gecko_sdk_4.4.3/platform/emlib/src/em_core.o
 .text.CORE_NvicEnableMask
                0x00000000       0x28 ./gecko_sdk_4.4.3/platform/emlib/src/em_core.o
 .text.CORE_YieldNvicMask
                0x00000000       0x9c ./gecko_sdk_4.4.3/platform/emlib/src/em_core.o
 .rodata        0x00000000       0x35 ./gecko_sdk_4.4.3/platform/emlib/src/em_core.o
 .text.CORE_NvicMaskSetIRQ
                0x00000000       0x5c ./gecko_sdk_4.4.3/platform/emlib/src/em_core.o
 .text.CORE_NvicMaskClearIRQ
                0x00000000       0x5c ./gecko_sdk_4.4.3/platform/emlib/src/em_core.o
 .text.CORE_InIrqContext
                0x00000000       0x1c ./gecko_sdk_4.4.3/platform/emlib/src/em_core.o
 .text.CORE_IrqIsBlocked
                0x00000000       0xb8 ./gecko_sdk_4.4.3/platform/emlib/src/em_core.o
 .text.CORE_IrqIsDisabled
                0x00000000       0x30 ./gecko_sdk_4.4.3/platform/emlib/src/em_core.o
 .text.CORE_GetNvicEnabledMask
                0x00000000       0x28 ./gecko_sdk_4.4.3/platform/emlib/src/em_core.o
 .text.CORE_GetNvicMaskDisableState
                0x00000000       0x58 ./gecko_sdk_4.4.3/platform/emlib/src/em_core.o
 .text.CORE_NvicIRQDisabled
                0x00000000       0x60 ./gecko_sdk_4.4.3/platform/emlib/src/em_core.o
 .text.CORE_GetNvicRamTableHandler
                0x00000000       0x48 ./gecko_sdk_4.4.3/platform/emlib/src/em_core.o
 .text.CORE_SetNvicRamTableHandler
                0x00000000       0x4c ./gecko_sdk_4.4.3/platform/emlib/src/em_core.o
 .text.CORE_InitNvicVectorTable
                0x00000000      0x11c ./gecko_sdk_4.4.3/platform/emlib/src/em_core.o
 .text          0x00000000        0x0 ./gecko_sdk_4.4.3/platform/emlib/src/em_emu.o
 .data          0x00000000        0x0 ./gecko_sdk_4.4.3/platform/emlib/src/em_emu.o
 .bss           0x00000000        0x0 ./gecko_sdk_4.4.3/platform/emlib/src/em_emu.o
 .text.BUS_RegMaskedWrite
                0x00000000       0x34 ./gecko_sdk_4.4.3/platform/emlib/src/em_emu.o
 .text.EMU_Unlock
                0x00000000       0x10 ./gecko_sdk_4.4.3/platform/emlib/src/em_emu.o
 .text.SYSCFG_maskDmem0RetnCtrl
                0x00000000       0x20 ./gecko_sdk_4.4.3/platform/emlib/src/em_emu.o
 .text.SYSCFG_zeroDmem0RetnCtrl
                0x00000000       0x10 ./gecko_sdk_4.4.3/platform/emlib/src/em_emu.o
 .text.EMU_EM23PresleepHook
                0x00000000        0x4 ./gecko_sdk_4.4.3/platform/emlib/src/em_emu.o
 .text.EMU_EM23PostsleepHook
                0x00000000        0x4 ./gecko_sdk_4.4.3/platform/emlib/src/em_emu.o
 .text.EMU_EM4PresleepHook
                0x00000000        0x4 ./gecko_sdk_4.4.3/platform/emlib/src/em_emu.o
 .text.EMU_EFPEM4PresleepHook
                0x00000000        0x4 ./gecko_sdk_4.4.3/platform/emlib/src/em_emu.o
 .text.EMU_EnterEM4
                0x00000000       0xb0 ./gecko_sdk_4.4.3/platform/emlib/src/em_emu.o
 .text.EMU_EnterEM4Wait
                0x00000000       0x2e ./gecko_sdk_4.4.3/platform/emlib/src/em_emu.o
 .text.EMU_EnterEM4H
                0x00000000        0xa ./gecko_sdk_4.4.3/platform/emlib/src/em_emu.o
 .text.EMU_EnterEM4S
                0x00000000        0xa ./gecko_sdk_4.4.3/platform/emlib/src/em_emu.o
 .text.EMU_MemPwrDown
                0x00000000        0xa ./gecko_sdk_4.4.3/platform/emlib/src/em_emu.o
 .text.EMU_RamPowerDown
                0x00000000       0x7c ./gecko_sdk_4.4.3/platform/emlib/src/em_emu.o
 .text.EMU_RamPowerUp
                0x00000000       0x1c ./gecko_sdk_4.4.3/platform/emlib/src/em_emu.o
 .text.EMU_UpdateOscConfig
                0x00000000        0x4 ./gecko_sdk_4.4.3/platform/emlib/src/em_emu.o
 .text.EMU_DCDCPowerOff
                0x00000000        0xe ./gecko_sdk_4.4.3/platform/emlib/src/em_emu.o
 .text.EMU_EM01PeakCurrentSet
                0x00000000       0x9c ./gecko_sdk_4.4.3/platform/emlib/src/em_emu.o
 .text.EMU_DCDCSetPFMXTimeoutMaxCtrl
                0x00000000       0x9c ./gecko_sdk_4.4.3/platform/emlib/src/em_emu.o
 .text.EMU_TemperatureGet
                0x00000000       0x30 ./gecko_sdk_4.4.3/platform/emlib/src/em_emu.o
 .text.EMU_EFPDirectModeEnable
                0x00000000       0x38 ./gecko_sdk_4.4.3/platform/emlib/src/em_emu.o
 .text.EMU_EFPDriveDecoupleSet
                0x00000000       0x38 ./gecko_sdk_4.4.3/platform/emlib/src/em_emu.o
 .text.EMU_EFPDriveDvddSet
                0x00000000       0x38 ./gecko_sdk_4.4.3/platform/emlib/src/em_emu.o
 .text          0x00000000        0x0 ./gecko_sdk_4.4.3/platform/emlib/src/em_gpio.o
 .data          0x00000000        0x0 ./gecko_sdk_4.4.3/platform/emlib/src/em_gpio.o
 .bss           0x00000000        0x0 ./gecko_sdk_4.4.3/platform/emlib/src/em_gpio.o
 .text.BUS_RegBitWrite
                0x00000000       0x48 ./gecko_sdk_4.4.3/platform/emlib/src/em_gpio.o
 .text.GPIO_EM4SetPinRetention
                0x00000000       0x4c ./gecko_sdk_4.4.3/platform/emlib/src/em_gpio.o
 .text.GPIO_IntClear
                0x00000000       0x1c ./gecko_sdk_4.4.3/platform/emlib/src/em_gpio.o
 .text.GPIO_ExtIntConfig
                0x00000000      0x168 ./gecko_sdk_4.4.3/platform/emlib/src/em_gpio.o
 .text.GPIO_EM4WUExtIntConfig
                0x00000000       0xb8 ./gecko_sdk_4.4.3/platform/emlib/src/em_gpio.o
 .text.GPIO_PinModeGet
                0x00000000       0xb4 ./gecko_sdk_4.4.3/platform/emlib/src/em_gpio.o
 .text.GPIO_EM4EnablePinWakeup
                0x00000000       0x8c ./gecko_sdk_4.4.3/platform/emlib/src/em_gpio.o
 .text          0x00000000        0x0 ./gecko_sdk_4.4.3/platform/emlib/src/em_i2c.o
 .data          0x00000000        0x0 ./gecko_sdk_4.4.3/platform/emlib/src/em_i2c.o
 .bss           0x00000000        0x0 ./gecko_sdk_4.4.3/platform/emlib/src/em_i2c.o
 .text.I2C_BusFreqGet
                0x00000000       0x70 ./gecko_sdk_4.4.3/platform/emlib/src/em_i2c.o
 .text.I2C_Reset
                0x00000000       0x4c ./gecko_sdk_4.4.3/platform/emlib/src/em_i2c.o
 .text          0x00000000        0x0 ./gecko_sdk_4.4.3/platform/emlib/src/em_iadc.o
 .data          0x00000000        0x0 ./gecko_sdk_4.4.3/platform/emlib/src/em_iadc.o
 .bss           0x00000000        0x0 ./gecko_sdk_4.4.3/platform/emlib/src/em_iadc.o
 .text.IADC_pullSingleFifoData
                0x00000000        0xe ./gecko_sdk_4.4.3/platform/emlib/src/em_iadc.o
 .text.IADC_readSingleData
                0x00000000        0xe ./gecko_sdk_4.4.3/platform/emlib/src/em_iadc.o
 .text.IADC_pullScanFifoData
                0x00000000       0x10 ./gecko_sdk_4.4.3/platform/emlib/src/em_iadc.o
 .text.IADC_readScanData
                0x00000000       0x10 ./gecko_sdk_4.4.3/platform/emlib/src/em_iadc.o
 .text.IADC_clearInt
                0x00000000       0x18 ./gecko_sdk_4.4.3/platform/emlib/src/em_iadc.o
 .text.IADC_disableInt
                0x00000000       0x18 ./gecko_sdk_4.4.3/platform/emlib/src/em_iadc.o
 .text.IADC_initSingle
                0x00000000       0xc4 ./gecko_sdk_4.4.3/platform/emlib/src/em_iadc.o
 .text.IADC_updateSingleInput
                0x00000000       0x8c ./gecko_sdk_4.4.3/platform/emlib/src/em_iadc.o
 .text.IADC_setScanMask
                0x00000000       0x80 ./gecko_sdk_4.4.3/platform/emlib/src/em_iadc.o
 .text.IADC_updateScanEntry
                0x00000000       0xd4 ./gecko_sdk_4.4.3/platform/emlib/src/em_iadc.o
 .text.IADC_reset
                0x00000000      0x16c ./gecko_sdk_4.4.3/platform/emlib/src/em_iadc.o
 .text.IADC_pullSingleFifoResult
                0x00000000       0x2a ./gecko_sdk_4.4.3/platform/emlib/src/em_iadc.o
 .text.IADC_readSingleResult
                0x00000000       0x2a ./gecko_sdk_4.4.3/platform/emlib/src/em_iadc.o
 .text.IADC_readScanResult
                0x00000000       0x2e ./gecko_sdk_4.4.3/platform/emlib/src/em_iadc.o
 .text          0x00000000        0x0 ./gecko_sdk_4.4.3/platform/emlib/src/em_ldma.o
 .data          0x00000000        0x0 ./gecko_sdk_4.4.3/platform/emlib/src/em_ldma.o
 .bss           0x00000000        0x0 ./gecko_sdk_4.4.3/platform/emlib/src/em_ldma.o
 .text.__NVIC_EnableIRQ
                0x00000000       0x34 ./gecko_sdk_4.4.3/platform/emlib/src/em_ldma.o
 .text.__NVIC_DisableIRQ
                0x00000000       0x44 ./gecko_sdk_4.4.3/platform/emlib/src/em_ldma.o
 .text.__NVIC_ClearPendingIRQ
                0x00000000       0x38 ./gecko_sdk_4.4.3/platform/emlib/src/em_ldma.o
 .text.__NVIC_SetPriority
                0x00000000       0x50 ./gecko_sdk_4.4.3/platform/emlib/src/em_ldma.o
 .rodata        0x00000000       0x69 ./gecko_sdk_4.4.3/platform/emlib/src/em_ldma.o
 .text.BUS_RegBitWrite
                0x00000000       0x48 ./gecko_sdk_4.4.3/platform/emlib/src/em_ldma.o
 .text.BUS_RegMaskedClear
                0x00000000       0x1a ./gecko_sdk_4.4.3/platform/emlib/src/em_ldma.o
 .text.LDMA_DeInit
                0x00000000       0x34 ./gecko_sdk_4.4.3/platform/emlib/src/em_ldma.o
 .text.LDMA_EnableChannelRequest
                0x00000000       0x40 ./gecko_sdk_4.4.3/platform/emlib/src/em_ldma.o
 .text.LDMA_Init
                0x00000000       0xd8 ./gecko_sdk_4.4.3/platform/emlib/src/em_ldma.o
 .text.LDMA_StartTransfer
                0x00000000      0x1c8 ./gecko_sdk_4.4.3/platform/emlib/src/em_ldma.o
 .text.LDMA_StopTransfer
                0x00000000       0x54 ./gecko_sdk_4.4.3/platform/emlib/src/em_ldma.o
 .text.LDMA_TransferDone
                0x00000000       0x68 ./gecko_sdk_4.4.3/platform/emlib/src/em_ldma.o
 .text.LDMA_TransferRemainingCount
                0x00000000       0x94 ./gecko_sdk_4.4.3/platform/emlib/src/em_ldma.o
 .debug_info    0x00000000     0x1c62 ./gecko_sdk_4.4.3/platform/emlib/src/em_ldma.o
 .debug_abbrev  0x00000000      0x313 ./gecko_sdk_4.4.3/platform/emlib/src/em_ldma.o
 .debug_loc     0x00000000      0x284 ./gecko_sdk_4.4.3/platform/emlib/src/em_ldma.o
 .debug_aranges
                0x00000000       0x80 ./gecko_sdk_4.4.3/platform/emlib/src/em_ldma.o
 .debug_ranges  0x00000000       0x70 ./gecko_sdk_4.4.3/platform/emlib/src/em_ldma.o
 .debug_line    0x00000000      0x6a5 ./gecko_sdk_4.4.3/platform/emlib/src/em_ldma.o
 .debug_str     0x00000000     0x150f ./gecko_sdk_4.4.3/platform/emlib/src/em_ldma.o
 .comment       0x00000000       0x46 ./gecko_sdk_4.4.3/platform/emlib/src/em_ldma.o
 .debug_frame   0x00000000      0x164 ./gecko_sdk_4.4.3/platform/emlib/src/em_ldma.o
 .ARM.attributes
                0x00000000       0x3a ./gecko_sdk_4.4.3/platform/emlib/src/em_ldma.o
 .text          0x00000000        0x0 ./gecko_sdk_4.4.3/platform/emlib/src/em_msc.o
 .data          0x00000000        0x0 ./gecko_sdk_4.4.3/platform/emlib/src/em_msc.o
 .bss           0x00000000        0x0 ./gecko_sdk_4.4.3/platform/emlib/src/em_msc.o
 .text.BUS_RegMaskedWrite
                0x00000000       0x34 ./gecko_sdk_4.4.3/platform/emlib/src/em_msc.o
 .text.BUS_RegMaskedRead
                0x00000000       0x14 ./gecko_sdk_4.4.3/platform/emlib/src/em_msc.o
 .ram           0x00000000      0x354 ./gecko_sdk_4.4.3/platform/emlib/src/em_msc.o
 .rodata        0x00000000       0x34 ./gecko_sdk_4.4.3/platform/emlib/src/em_msc.o
 .rodata.eccBankTbl
                0x00000000       0x10 ./gecko_sdk_4.4.3/platform/emlib/src/em_msc.o
 .text.MSC_Init
                0x00000000       0x30 ./gecko_sdk_4.4.3/platform/emlib/src/em_msc.o
 .text.MSC_Deinit
                0x00000000       0x34 ./gecko_sdk_4.4.3/platform/emlib/src/em_msc.o
 .text.MSC_ExecConfigSet
                0x00000000       0x30 ./gecko_sdk_4.4.3/platform/emlib/src/em_msc.o
 .text.MSC_WriteWordDma
                0x00000000      0x1e4 ./gecko_sdk_4.4.3/platform/emlib/src/em_msc.o
 .text.mscEccReadWriteExistingPio
                0x00000000       0x88 ./gecko_sdk_4.4.3/platform/emlib/src/em_msc.o
 .text.mscEccBankInit
                0x00000000       0x34 ./gecko_sdk_4.4.3/platform/emlib/src/em_msc.o
 .text.mscEccBankDisable
                0x00000000       0x24 ./gecko_sdk_4.4.3/platform/emlib/src/em_msc.o
 .text.MSC_EccConfigSet
                0x00000000       0x80 ./gecko_sdk_4.4.3/platform/emlib/src/em_msc.o
 .text.MSC_DmemPortMapSet
                0x00000000       0xb0 ./gecko_sdk_4.4.3/platform/emlib/src/em_msc.o
 .text.MSC_PortSetPriority
                0x00000000       0x3c ./gecko_sdk_4.4.3/platform/emlib/src/em_msc.o
 .text.MSC_PortGetCurrentPriority
                0x00000000       0x24 ./gecko_sdk_4.4.3/platform/emlib/src/em_msc.o
 .debug_info    0x00000000     0x326e ./gecko_sdk_4.4.3/platform/emlib/src/em_msc.o
 .debug_abbrev  0x00000000      0x27a ./gecko_sdk_4.4.3/platform/emlib/src/em_msc.o
 .debug_loc     0x00000000      0x350 ./gecko_sdk_4.4.3/platform/emlib/src/em_msc.o
 .debug_aranges
                0x00000000       0xa8 ./gecko_sdk_4.4.3/platform/emlib/src/em_msc.o
 .debug_ranges  0x00000000       0x98 ./gecko_sdk_4.4.3/platform/emlib/src/em_msc.o
 .debug_line    0x00000000      0x7a3 ./gecko_sdk_4.4.3/platform/emlib/src/em_msc.o
 .debug_str     0x00000000     0x1c9a ./gecko_sdk_4.4.3/platform/emlib/src/em_msc.o
 .comment       0x00000000       0x46 ./gecko_sdk_4.4.3/platform/emlib/src/em_msc.o
 .debug_frame   0x00000000      0x1e4 ./gecko_sdk_4.4.3/platform/emlib/src/em_msc.o
 .ARM.attributes
                0x00000000       0x3a ./gecko_sdk_4.4.3/platform/emlib/src/em_msc.o
 .text          0x00000000        0x0 ./gecko_sdk_4.4.3/platform/emlib/src/em_prs.o
 .data          0x00000000        0x0 ./gecko_sdk_4.4.3/platform/emlib/src/em_prs.o
 .bss           0x00000000        0x0 ./gecko_sdk_4.4.3/platform/emlib/src/em_prs.o
 .text.getSignal
                0x00000000       0x50 ./gecko_sdk_4.4.3/platform/emlib/src/em_prs.o
 .text.PRS_SourceSignalSet
                0x00000000       0x48 ./gecko_sdk_4.4.3/platform/emlib/src/em_prs.o
 .text.PRS_SourceAsyncSignalSet
                0x00000000       0x28 ./gecko_sdk_4.4.3/platform/emlib/src/em_prs.o
 .text.PRS_GetFreeChannel
                0x00000000       0x62 ./gecko_sdk_4.4.3/platform/emlib/src/em_prs.o
 .text.PRS_Reset
                0x00000000       0x54 ./gecko_sdk_4.4.3/platform/emlib/src/em_prs.o
 .text.PRS_PinOutput
                0x00000000       0x98 ./gecko_sdk_4.4.3/platform/emlib/src/em_prs.o
 .text.PRS_Combine
                0x00000000       0x68 ./gecko_sdk_4.4.3/platform/emlib/src/em_prs.o
 .text          0x00000000        0x0 ./gecko_sdk_4.4.3/platform/emlib/src/em_system.o
 .data          0x00000000        0x0 ./gecko_sdk_4.4.3/platform/emlib/src/em_system.o
 .bss           0x00000000        0x0 ./gecko_sdk_4.4.3/platform/emlib/src/em_system.o
 .text.SYSTEM_GetCalibrationValue
                0x00000000       0x5c ./gecko_sdk_4.4.3/platform/emlib/src/em_system.o
 .text.SYSTEM_GetSecurityCapability
                0x00000000       0x70 ./gecko_sdk_4.4.3/platform/emlib/src/em_system.o
 .text.SYSTEM_GetUnique
                0x00000000       0x44 ./gecko_sdk_4.4.3/platform/emlib/src/em_system.o
 .text.SYSTEM_GetProdRev
                0x00000000       0x10 ./gecko_sdk_4.4.3/platform/emlib/src/em_system.o
 .text.SYSTEM_GetSRAMBaseAddress
                0x00000000        0x8 ./gecko_sdk_4.4.3/platform/emlib/src/em_system.o
 .text.SYSTEM_GetSRAMSize
                0x00000000       0x20 ./gecko_sdk_4.4.3/platform/emlib/src/em_system.o
 .text.SYSTEM_GetFlashSize
                0x00000000       0x10 ./gecko_sdk_4.4.3/platform/emlib/src/em_system.o
 .text.SYSTEM_GetFlashPageSize
                0x00000000       0x24 ./gecko_sdk_4.4.3/platform/emlib/src/em_system.o
 .text.SYSTEM_GetPartNumber
                0x00000000       0x10 ./gecko_sdk_4.4.3/platform/emlib/src/em_system.o
 .text.SYSTEM_GetCalibrationTemperature
                0x00000000       0x10 ./gecko_sdk_4.4.3/platform/emlib/src/em_system.o
 .text.SYSTEM_GetFamily
                0x00000000       0x14 ./gecko_sdk_4.4.3/platform/emlib/src/em_system.o
 .text          0x00000000        0x0 ./gecko_sdk_4.4.3/platform/emlib/src/em_timer.o
 .data          0x00000000        0x0 ./gecko_sdk_4.4.3/platform/emlib/src/em_timer.o
 .bss           0x00000000        0x0 ./gecko_sdk_4.4.3/platform/emlib/src/em_timer.o
 .text.TIMER_Valid
                0x00000000       0x54 ./gecko_sdk_4.4.3/platform/emlib/src/em_timer.o
 .text.TIMER_SupportsDTI
                0x00000000       0x54 ./gecko_sdk_4.4.3/platform/emlib/src/em_timer.o
 .text.TIMER_EnableDTI
                0x00000000       0x70 ./gecko_sdk_4.4.3/platform/emlib/src/em_timer.o
 .rodata        0x00000000       0x6e ./gecko_sdk_4.4.3/platform/emlib/src/em_timer.o
 .text.TIMER_GetDTIFault
                0x00000000       0x30 ./gecko_sdk_4.4.3/platform/emlib/src/em_timer.o
 .text.TIMER_ClearDTIFault
                0x00000000       0x48 ./gecko_sdk_4.4.3/platform/emlib/src/em_timer.o
 .text.timerPrsConfig
                0x00000000       0xc4 ./gecko_sdk_4.4.3/platform/emlib/src/em_timer.o
 .text.TIMER_Init
                0x00000000      0x144 ./gecko_sdk_4.4.3/platform/emlib/src/em_timer.o
 .text.TIMER_InitCC
                0x00000000      0x14c ./gecko_sdk_4.4.3/platform/emlib/src/em_timer.o
 .text.TIMER_InitDTI
                0x00000000      0x188 ./gecko_sdk_4.4.3/platform/emlib/src/em_timer.o
 .text.TIMER_Reset
                0x00000000      0x128 ./gecko_sdk_4.4.3/platform/emlib/src/em_timer.o
 .text.TIMER_SyncWait
                0x00000000       0x24 ./gecko_sdk_4.4.3/platform/emlib/src/em_timer.o
 .debug_info    0x00000000     0x2c07 ./gecko_sdk_4.4.3/platform/emlib/src/em_timer.o
 .debug_abbrev  0x00000000      0x2ac ./gecko_sdk_4.4.3/platform/emlib/src/em_timer.o
 .debug_loc     0x00000000      0x244 ./gecko_sdk_4.4.3/platform/emlib/src/em_timer.o
 .debug_aranges
                0x00000000       0x70 ./gecko_sdk_4.4.3/platform/emlib/src/em_timer.o
 .debug_ranges  0x00000000       0x60 ./gecko_sdk_4.4.3/platform/emlib/src/em_timer.o
 .debug_line    0x00000000      0x91e ./gecko_sdk_4.4.3/platform/emlib/src/em_timer.o
 .debug_str     0x00000000     0x3320 ./gecko_sdk_4.4.3/platform/emlib/src/em_timer.o
 .comment       0x00000000       0x46 ./gecko_sdk_4.4.3/platform/emlib/src/em_timer.o
 .debug_frame   0x00000000      0x138 ./gecko_sdk_4.4.3/platform/emlib/src/em_timer.o
 .ARM.attributes
                0x00000000       0x3a ./gecko_sdk_4.4.3/platform/emlib/src/em_timer.o
 .text          0x00000000        0x0 ./gecko_sdk_4.4.3/platform/emlib/src/em_usart.o
 .data          0x00000000        0x0 ./gecko_sdk_4.4.3/platform/emlib/src/em_usart.o
 .bss           0x00000000        0x0 ./gecko_sdk_4.4.3/platform/emlib/src/em_usart.o
 .text.prsTriggerInput
                0x00000000       0x2c ./gecko_sdk_4.4.3/platform/emlib/src/em_usart.o
 .text.USART_BaudrateAsyncSet
                0x00000000      0x14c ./gecko_sdk_4.4.3/platform/emlib/src/em_usart.o
 .text.USART_BaudrateCalc
                0x00000000      0x148 ./gecko_sdk_4.4.3/platform/emlib/src/em_usart.o
 .text.USART_BaudrateGet
                0x00000000       0x54 ./gecko_sdk_4.4.3/platform/emlib/src/em_usart.o
 .text.USART_Enable
                0x00000000       0x70 ./gecko_sdk_4.4.3/platform/emlib/src/em_usart.o
 .text.USART_InitAsync
                0x00000000      0x134 ./gecko_sdk_4.4.3/platform/emlib/src/em_usart.o
 .text.USARTn_InitIrDA
                0x00000000       0x7c ./gecko_sdk_4.4.3/platform/emlib/src/em_usart.o
 .text.USART_InitI2s
                0x00000000       0xa0 ./gecko_sdk_4.4.3/platform/emlib/src/em_usart.o
 .text.USART_InitPrsTrigger
                0x00000000       0x5c ./gecko_sdk_4.4.3/platform/emlib/src/em_usart.o
 .text.USART_Rx
                0x00000000       0x1e ./gecko_sdk_4.4.3/platform/emlib/src/em_usart.o
 .text.USART_RxDouble
                0x00000000       0x1e ./gecko_sdk_4.4.3/platform/emlib/src/em_usart.o
 .text.USART_RxDoubleExt
                0x00000000       0x1c ./gecko_sdk_4.4.3/platform/emlib/src/em_usart.o
 .text.USART_RxExt
                0x00000000       0x1e ./gecko_sdk_4.4.3/platform/emlib/src/em_usart.o
 .text.USART_Tx
                0x00000000       0x26 ./gecko_sdk_4.4.3/platform/emlib/src/em_usart.o
 .text.USART_TxDouble
                0x00000000       0x26 ./gecko_sdk_4.4.3/platform/emlib/src/em_usart.o
 .text.USART_TxDoubleExt
                0x00000000       0x20 ./gecko_sdk_4.4.3/platform/emlib/src/em_usart.o
 .text.USART_TxExt
                0x00000000       0x26 ./gecko_sdk_4.4.3/platform/emlib/src/em_usart.o
 .text          0x00000000        0x0 ./gecko_sdk_4.4.3/platform/peripheral/src/peripheral_sysrtc.o
 .data          0x00000000        0x0 ./gecko_sdk_4.4.3/platform/peripheral/src/peripheral_sysrtc.o
 .bss           0x00000000        0x0 ./gecko_sdk_4.4.3/platform/peripheral/src/peripheral_sysrtc.o
 .text.sl_hal_sysrtc_start
                0x00000000       0x14 ./gecko_sdk_4.4.3/platform/peripheral/src/peripheral_sysrtc.o
 .text.sl_hal_sysrtc_get_status
                0x00000000        0xc ./gecko_sdk_4.4.3/platform/peripheral/src/peripheral_sysrtc.o
 .text.sl_hal_sysrtc_lock
                0x00000000       0x14 ./gecko_sdk_4.4.3/platform/peripheral/src/peripheral_sysrtc.o
 .text.sl_hal_sysrtc_unlock
                0x00000000       0x10 ./gecko_sdk_4.4.3/platform/peripheral/src/peripheral_sysrtc.o
 .text.sl_hal_sysrtc_reset
                0x00000000       0x10 ./gecko_sdk_4.4.3/platform/peripheral/src/peripheral_sysrtc.o
 .text.sl_hal_sysrtc_get_group_enabled_interrupts
                0x00000000       0x4c ./gecko_sdk_4.4.3/platform/peripheral/src/peripheral_sysrtc.o
 .text.sl_hal_sysrtc_set_group_interrupts
                0x00000000       0x44 ./gecko_sdk_4.4.3/platform/peripheral/src/peripheral_sysrtc.o
 .text          0x00000000        0x0 ./gecko_sdk_4.4.3/platform/service/device_init/src/sl_device_init_dcdc_s2.o
 .data          0x00000000        0x0 ./gecko_sdk_4.4.3/platform/service/device_init/src/sl_device_init_dcdc_s2.o
 .bss           0x00000000        0x0 ./gecko_sdk_4.4.3/platform/service/device_init/src/sl_device_init_dcdc_s2.o
 .text          0x00000000        0x0 ./gecko_sdk_4.4.3/platform/service/device_init/src/sl_device_init_emu_s2.o
 .data          0x00000000        0x0 ./gecko_sdk_4.4.3/platform/service/device_init/src/sl_device_init_emu_s2.o
 .bss           0x00000000        0x0 ./gecko_sdk_4.4.3/platform/service/device_init/src/sl_device_init_emu_s2.o
 .text          0x00000000        0x0 ./gecko_sdk_4.4.3/platform/service/device_init/src/sl_device_init_hfxo_s2.o
 .data          0x00000000        0x0 ./gecko_sdk_4.4.3/platform/service/device_init/src/sl_device_init_hfxo_s2.o
 .bss           0x00000000        0x0 ./gecko_sdk_4.4.3/platform/service/device_init/src/sl_device_init_hfxo_s2.o
 .text          0x00000000        0x0 ./gecko_sdk_4.4.3/platform/service/device_init/src/sl_device_init_lfxo_s2.o
 .data          0x00000000        0x0 ./gecko_sdk_4.4.3/platform/service/device_init/src/sl_device_init_lfxo_s2.o
 .bss           0x00000000        0x0 ./gecko_sdk_4.4.3/platform/service/device_init/src/sl_device_init_lfxo_s2.o
 .text          0x00000000        0x0 ./gecko_sdk_4.4.3/platform/service/device_init/src/sl_device_init_nvic.o
 .data          0x00000000        0x0 ./gecko_sdk_4.4.3/platform/service/device_init/src/sl_device_init_nvic.o
 .bss           0x00000000        0x0 ./gecko_sdk_4.4.3/platform/service/device_init/src/sl_device_init_nvic.o
 .text          0x00000000        0x0 ./gecko_sdk_4.4.3/platform/service/hfxo_manager/src/sl_hfxo_manager.o
 .data          0x00000000        0x0 ./gecko_sdk_4.4.3/platform/service/hfxo_manager/src/sl_hfxo_manager.o
 .bss           0x00000000        0x0 ./gecko_sdk_4.4.3/platform/service/hfxo_manager/src/sl_hfxo_manager.o
 .text.sl_hfxo_manager_update_sleepy_xtal_settings
                0x00000000       0x16 ./gecko_sdk_4.4.3/platform/service/hfxo_manager/src/sl_hfxo_manager.o
 .text.sl_hfxo_manager_notify_consecutive_failed_startups
                0x00000000       0x14 ./gecko_sdk_4.4.3/platform/service/hfxo_manager/src/sl_hfxo_manager.o
 .text.sli_hfxo_manager_get_latest_startup_time
                0x00000000        0xc ./gecko_sdk_4.4.3/platform/service/hfxo_manager/src/sl_hfxo_manager.o
 .text          0x00000000        0x0 ./gecko_sdk_4.4.3/platform/service/hfxo_manager/src/sl_hfxo_manager_hal_s2.o
 .data          0x00000000        0x0 ./gecko_sdk_4.4.3/platform/service/hfxo_manager/src/sl_hfxo_manager_hal_s2.o
 .bss           0x00000000        0x0 ./gecko_sdk_4.4.3/platform/service/hfxo_manager/src/sl_hfxo_manager_hal_s2.o
 .text.sli_hfxo_manager_update_sleepy_xtal_settings_hardware
                0x00000000        0xc ./gecko_sdk_4.4.3/platform/service/hfxo_manager/src/sl_hfxo_manager_hal_s2.o
 .text          0x00000000        0x0 ./gecko_sdk_4.4.3/platform/service/iostream/src/sl_iostream.o
 .data          0x00000000        0x0 ./gecko_sdk_4.4.3/platform/service/iostream/src/sl_iostream.o
 .bss           0x00000000        0x0 ./gecko_sdk_4.4.3/platform/service/iostream/src/sl_iostream.o
 .bss.sl_iostream_null
                0x00000000        0xc ./gecko_sdk_4.4.3/platform/service/iostream/src/sl_iostream.o
 .text.sl_iostream_putchar
                0x00000000       0x24 ./gecko_sdk_4.4.3/platform/service/iostream/src/sl_iostream.o
 .text.sl_iostream_getchar
                0x00000000       0x1e ./gecko_sdk_4.4.3/platform/service/iostream/src/sl_iostream.o
 .text          0x00000000        0x0 ./gecko_sdk_4.4.3/platform/service/iostream/src/sl_iostream_debug.o
 .data          0x00000000        0x0 ./gecko_sdk_4.4.3/platform/service/iostream/src/sl_iostream_debug.o
 .bss           0x00000000        0x0 ./gecko_sdk_4.4.3/platform/service/iostream/src/sl_iostream_debug.o
 .data.sl_iostream_debug_handle
                0x00000000        0x4 ./gecko_sdk_4.4.3/platform/service/iostream/src/sl_iostream_debug.o
 .rodata        0x00000000        0x6 ./gecko_sdk_4.4.3/platform/service/iostream/src/sl_iostream_debug.o
 .data.sl_iostream_instance_debug_info
                0x00000000       0x10 ./gecko_sdk_4.4.3/platform/service/iostream/src/sl_iostream_debug.o
 .text.sl_iostream_set_debug_type
                0x00000000       0x1c ./gecko_sdk_4.4.3/platform/service/iostream/src/sl_iostream_debug.o
 .text          0x00000000        0x0 ./gecko_sdk_4.4.3/platform/service/iostream/src/sl_iostream_retarget_stdio.o
 .data          0x00000000        0x0 ./gecko_sdk_4.4.3/platform/service/iostream/src/sl_iostream_retarget_stdio.o
 .bss           0x00000000        0x0 ./gecko_sdk_4.4.3/platform/service/iostream/src/sl_iostream_retarget_stdio.o
 .text._getpid  0x00000000        0x6 ./gecko_sdk_4.4.3/platform/service/iostream/src/sl_iostream_retarget_stdio.o
 .text._kill    0x00000000       0x10 ./gecko_sdk_4.4.3/platform/service/iostream/src/sl_iostream_retarget_stdio.o
 .text          0x00000000        0x0 ./gecko_sdk_4.4.3/platform/service/iostream/src/sl_iostream_stdlib_config.o
 .data          0x00000000        0x0 ./gecko_sdk_4.4.3/platform/service/iostream/src/sl_iostream_stdlib_config.o
 .bss           0x00000000        0x0 ./gecko_sdk_4.4.3/platform/service/iostream/src/sl_iostream_stdlib_config.o
 .text          0x00000000        0x0 ./gecko_sdk_4.4.3/platform/service/iostream/src/sl_iostream_swo_itm_8.o
 .data          0x00000000        0x0 ./gecko_sdk_4.4.3/platform/service/iostream/src/sl_iostream_swo_itm_8.o
 .bss           0x00000000        0x0 ./gecko_sdk_4.4.3/platform/service/iostream/src/sl_iostream_swo_itm_8.o
 .text          0x00000000        0x0 ./gecko_sdk_4.4.3/platform/service/power_manager/src/sl_power_manager.o
 .data          0x00000000        0x0 ./gecko_sdk_4.4.3/platform/service/power_manager/src/sl_power_manager.o
 .bss           0x00000000        0x0 ./gecko_sdk_4.4.3/platform/service/power_manager/src/sl_power_manager.o
 .text.sli_power_manager_update_hf_clock_settings_preservation_requirement
                0x00000000       0xa8 ./gecko_sdk_4.4.3/platform/service/power_manager/src/sl_power_manager.o
 .text.sli_power_manager_add_hf_clock_settings_preservation_requirement
                0x00000000        0xc ./gecko_sdk_4.4.3/platform/service/power_manager/src/sl_power_manager.o
 .text.sli_power_manager_remove_hf_clock_settings_preservation_requirement
                0x00000000        0xc ./gecko_sdk_4.4.3/platform/service/power_manager/src/sl_power_manager.o
 .text.sli_power_manager_get_clock_restore_status
                0x00000000        0xc ./gecko_sdk_4.4.3/platform/service/power_manager/src/sl_power_manager.o
 .text.sl_power_manager_unsubscribe_em_transition_event
                0x00000000       0x28 ./gecko_sdk_4.4.3/platform/service/power_manager/src/sl_power_manager.o
 .text.sl_power_manager_schedule_wakeup_set_restore_overhead_tick
                0x00000000       0x14 ./gecko_sdk_4.4.3/platform/service/power_manager/src/sl_power_manager.o
 .text.sl_power_manager_schedule_wakeup_get_minimum_offtime_tick
                0x00000000       0x14 ./gecko_sdk_4.4.3/platform/service/power_manager/src/sl_power_manager.o
 .text.sl_power_manager_schedule_wakeup_set_minimum_offtime_tick
                0x00000000       0x14 ./gecko_sdk_4.4.3/platform/service/power_manager/src/sl_power_manager.o
 .text.sl_power_manager_is_ok_to_sleep
                0x00000000        0x6 ./gecko_sdk_4.4.3/platform/service/power_manager/src/sl_power_manager.o
 .text.sl_power_manager_sleep_on_isr_exit
                0x00000000        0x6 ./gecko_sdk_4.4.3/platform/service/power_manager/src/sl_power_manager.o
 .text.sl_power_manager_em23_voltage_scaling_enable_fast_wakeup
                0x00000000       0x28 ./gecko_sdk_4.4.3/platform/service/power_manager/src/sl_power_manager.o
 .text          0x00000000        0x0 ./gecko_sdk_4.4.3/platform/service/power_manager/src/sl_power_manager_debug.o
 .data          0x00000000        0x0 ./gecko_sdk_4.4.3/platform/service/power_manager/src/sl_power_manager_debug.o
 .bss           0x00000000        0x0 ./gecko_sdk_4.4.3/platform/service/power_manager/src/sl_power_manager_debug.o
 .text.sli_power_manager_debug_log_em_requirement
                0x00000000       0x16 ./gecko_sdk_4.4.3/platform/service/power_manager/src/sl_power_manager_debug.o
 .debug_info    0x00000000      0x10a ./gecko_sdk_4.4.3/platform/service/power_manager/src/sl_power_manager_debug.o
 .debug_abbrev  0x00000000       0xa5 ./gecko_sdk_4.4.3/platform/service/power_manager/src/sl_power_manager_debug.o
 .debug_loc     0x00000000       0x2c ./gecko_sdk_4.4.3/platform/service/power_manager/src/sl_power_manager_debug.o
 .debug_aranges
                0x00000000       0x20 ./gecko_sdk_4.4.3/platform/service/power_manager/src/sl_power_manager_debug.o
 .debug_ranges  0x00000000       0x10 ./gecko_sdk_4.4.3/platform/service/power_manager/src/sl_power_manager_debug.o
 .debug_line    0x00000000       0xda ./gecko_sdk_4.4.3/platform/service/power_manager/src/sl_power_manager_debug.o
 .debug_str     0x00000000      0x2c2 ./gecko_sdk_4.4.3/platform/service/power_manager/src/sl_power_manager_debug.o
 .comment       0x00000000       0x46 ./gecko_sdk_4.4.3/platform/service/power_manager/src/sl_power_manager_debug.o
 .debug_frame   0x00000000       0x28 ./gecko_sdk_4.4.3/platform/service/power_manager/src/sl_power_manager_debug.o
 .ARM.attributes
                0x00000000       0x3a ./gecko_sdk_4.4.3/platform/service/power_manager/src/sl_power_manager_debug.o
 .text          0x00000000        0x0 ./gecko_sdk_4.4.3/platform/service/power_manager/src/sl_power_manager_hal_s2.o
 .data          0x00000000        0x0 ./gecko_sdk_4.4.3/platform/service/power_manager/src/sl_power_manager_hal_s2.o
 .bss           0x00000000        0x0 ./gecko_sdk_4.4.3/platform/service/power_manager/src/sl_power_manager_hal_s2.o
 .text.sli_power_manager_set_high_accuracy_hf_clock_as_used
                0x00000000       0x10 ./gecko_sdk_4.4.3/platform/service/power_manager/src/sl_power_manager_hal_s2.o
 .text          0x00000000        0x0 ./gecko_sdk_4.4.3/platform/service/sleeptimer/src/sl_sleeptimer.o
 .data          0x00000000        0x0 ./gecko_sdk_4.4.3/platform/service/sleeptimer/src/sl_sleeptimer.o
 .bss           0x00000000        0x0 ./gecko_sdk_4.4.3/platform/service/sleeptimer/src/sl_sleeptimer.o
 .text.sl_sleeptimer_start_periodic_timer
                0x00000000       0x66 ./gecko_sdk_4.4.3/platform/service/sleeptimer/src/sl_sleeptimer.o
 .text.sl_sleeptimer_start_periodic_timer_ms
                0x00000000       0xb4 ./gecko_sdk_4.4.3/platform/service/sleeptimer/src/sl_sleeptimer.o
 .text.sl_sleeptimer_restart_periodic_timer
                0x00000000       0x4e ./gecko_sdk_4.4.3/platform/service/sleeptimer/src/sl_sleeptimer.o
 .text.sl_sleeptimer_restart_periodic_timer_ms
                0x00000000       0x9c ./gecko_sdk_4.4.3/platform/service/sleeptimer/src/sl_sleeptimer.o
 .text.sl_sleeptimer_get_timer_time_remaining
                0x00000000       0xb0 ./gecko_sdk_4.4.3/platform/service/sleeptimer/src/sl_sleeptimer.o
 .text.sl_sleeptimer_get_tick_count64
                0x00000000       0x70 ./gecko_sdk_4.4.3/platform/service/sleeptimer/src/sl_sleeptimer.o
 .text.sl_sleeptimer_ms32_to_tick
                0x00000000       0x74 ./gecko_sdk_4.4.3/platform/service/sleeptimer/src/sl_sleeptimer.o
 .text.sl_sleeptimer_get_max_ms32_conversion
                0x00000000        0xc ./gecko_sdk_4.4.3/platform/service/sleeptimer/src/sl_sleeptimer.o
 .text.sl_sleeptimer_tick_to_ms
                0x00000000      0x154 ./gecko_sdk_4.4.3/platform/service/sleeptimer/src/sl_sleeptimer.o
 .text.sl_sleeptimer_tick64_to_ms
                0x00000000      0x168 ./gecko_sdk_4.4.3/platform/service/sleeptimer/src/sl_sleeptimer.o
 .text.div_to_log2
                0x00000000       0x24 ./gecko_sdk_4.4.3/platform/service/sleeptimer/src/sl_sleeptimer.o
 .text.is_power_of_2
                0x00000000       0x22 ./gecko_sdk_4.4.3/platform/service/sleeptimer/src/sl_sleeptimer.o
 .text.sl_sleeptimer_get_clock_accuracy
                0x00000000        0xc ./gecko_sdk_4.4.3/platform/service/sleeptimer/src/sl_sleeptimer.o
 .text          0x00000000        0x0 ./gecko_sdk_4.4.3/platform/service/sleeptimer/src/sl_sleeptimer_hal_burtc.o
 .data          0x00000000        0x0 ./gecko_sdk_4.4.3/platform/service/sleeptimer/src/sl_sleeptimer_hal_burtc.o
 .bss           0x00000000        0x0 ./gecko_sdk_4.4.3/platform/service/sleeptimer/src/sl_sleeptimer_hal_burtc.o
 .debug_info    0x00000000       0x72 ./gecko_sdk_4.4.3/platform/service/sleeptimer/src/sl_sleeptimer_hal_burtc.o
 .debug_abbrev  0x00000000       0x26 ./gecko_sdk_4.4.3/platform/service/sleeptimer/src/sl_sleeptimer_hal_burtc.o
 .debug_aranges
                0x00000000       0x18 ./gecko_sdk_4.4.3/platform/service/sleeptimer/src/sl_sleeptimer_hal_burtc.o
 .debug_line    0x00000000       0x72 ./gecko_sdk_4.4.3/platform/service/sleeptimer/src/sl_sleeptimer_hal_burtc.o
 .debug_str     0x00000000      0x211 ./gecko_sdk_4.4.3/platform/service/sleeptimer/src/sl_sleeptimer_hal_burtc.o
 .comment       0x00000000       0x46 ./gecko_sdk_4.4.3/platform/service/sleeptimer/src/sl_sleeptimer_hal_burtc.o
 .ARM.attributes
                0x00000000       0x3a ./gecko_sdk_4.4.3/platform/service/sleeptimer/src/sl_sleeptimer_hal_burtc.o
 .text          0x00000000        0x0 ./gecko_sdk_4.4.3/platform/service/sleeptimer/src/sl_sleeptimer_hal_sysrtc.o
 .data          0x00000000        0x0 ./gecko_sdk_4.4.3/platform/service/sleeptimer/src/sl_sleeptimer_hal_sysrtc.o
 .bss           0x00000000        0x0 ./gecko_sdk_4.4.3/platform/service/sleeptimer/src/sl_sleeptimer_hal_sysrtc.o
 .text.sleeptimer_hal_get_clock_accuracy
                0x00000000        0xe ./gecko_sdk_4.4.3/platform/service/sleeptimer/src/sl_sleeptimer_hal_sysrtc.o
 .text          0x00000000        0x0 ./gecko_sdk_4.4.3/platform/service/sleeptimer/src/sl_sleeptimer_hal_timer.o
 .data          0x00000000        0x0 ./gecko_sdk_4.4.3/platform/service/sleeptimer/src/sl_sleeptimer_hal_timer.o
 .bss           0x00000000        0x0 ./gecko_sdk_4.4.3/platform/service/sleeptimer/src/sl_sleeptimer_hal_timer.o
 .debug_info    0x00000000       0x72 ./gecko_sdk_4.4.3/platform/service/sleeptimer/src/sl_sleeptimer_hal_timer.o
 .debug_abbrev  0x00000000       0x26 ./gecko_sdk_4.4.3/platform/service/sleeptimer/src/sl_sleeptimer_hal_timer.o
 .debug_aranges
                0x00000000       0x18 ./gecko_sdk_4.4.3/platform/service/sleeptimer/src/sl_sleeptimer_hal_timer.o
 .debug_line    0x00000000       0x72 ./gecko_sdk_4.4.3/platform/service/sleeptimer/src/sl_sleeptimer_hal_timer.o
 .debug_str     0x00000000      0x211 ./gecko_sdk_4.4.3/platform/service/sleeptimer/src/sl_sleeptimer_hal_timer.o
 .comment       0x00000000       0x46 ./gecko_sdk_4.4.3/platform/service/sleeptimer/src/sl_sleeptimer_hal_timer.o
 .ARM.attributes
                0x00000000       0x3a ./gecko_sdk_4.4.3/platform/service/sleeptimer/src/sl_sleeptimer_hal_timer.o
 .text          0x00000000        0x0 ./gecko_sdk_4.4.3/platform/service/system/src/sl_system_init.o
 .data          0x00000000        0x0 ./gecko_sdk_4.4.3/platform/service/system/src/sl_system_init.o
 .bss           0x00000000        0x0 ./gecko_sdk_4.4.3/platform/service/system/src/sl_system_init.o
 .text          0x00000000        0x0 ./gecko_sdk_4.4.3/platform/service/system/src/sl_system_process_action.o
 .data          0x00000000        0x0 ./gecko_sdk_4.4.3/platform/service/system/src/sl_system_process_action.o
 .bss           0x00000000        0x0 ./gecko_sdk_4.4.3/platform/service/system/src/sl_system_process_action.o
 .text          0x00000000        0x0 ./gecko_sdk_4.4.3/platform/service/udelay/src/sl_udelay.o
 .data          0x00000000        0x0 ./gecko_sdk_4.4.3/platform/service/udelay/src/sl_udelay.o
 .bss           0x00000000        0x0 ./gecko_sdk_4.4.3/platform/service/udelay/src/sl_udelay.o
 .data          0x00000000        0x0 ./gecko_sdk_4.4.3/platform/service/udelay/src/sl_udelay_armv6m_gcc.o
 .bss           0x00000000        0x0 ./gecko_sdk_4.4.3/platform/service/udelay/src/sl_udelay_armv6m_gcc.o
 .data          0x00000000        0x0 c:/siliconlabs/simplicitystudio/v5/developer/toolchains/gnu_arm/12.2.rel1_2023.7/bin/../lib/gcc/arm-none-eabi/12.2.1/thumb/v8-m.main+fp/hard\libgcc.a(_aeabi_uldivmod.o)
 .bss           0x00000000        0x0 c:/siliconlabs/simplicitystudio/v5/developer/toolchains/gnu_arm/12.2.rel1_2023.7/bin/../lib/gcc/arm-none-eabi/12.2.1/thumb/v8-m.main+fp/hard\libgcc.a(_aeabi_uldivmod.o)
 .text          0x00000000        0x0 c:/siliconlabs/simplicitystudio/v5/developer/toolchains/gnu_arm/12.2.rel1_2023.7/bin/../lib/gcc/arm-none-eabi/12.2.1/thumb/v8-m.main+fp/hard\libgcc.a(_udivmoddi4.o)
 .data          0x00000000        0x0 c:/siliconlabs/simplicitystudio/v5/developer/toolchains/gnu_arm/12.2.rel1_2023.7/bin/../lib/gcc/arm-none-eabi/12.2.1/thumb/v8-m.main+fp/hard\libgcc.a(_udivmoddi4.o)
 .bss           0x00000000        0x0 c:/siliconlabs/simplicitystudio/v5/developer/toolchains/gnu_arm/12.2.rel1_2023.7/bin/../lib/gcc/arm-none-eabi/12.2.1/thumb/v8-m.main+fp/hard\libgcc.a(_udivmoddi4.o)
 .ARM.extab.text.__udivmoddi4
                0x00000000        0x0 c:/siliconlabs/simplicitystudio/v5/developer/toolchains/gnu_arm/12.2.rel1_2023.7/bin/../lib/gcc/arm-none-eabi/12.2.1/thumb/v8-m.main+fp/hard\libgcc.a(_udivmoddi4.o)
 .data          0x00000000        0x0 c:/siliconlabs/simplicitystudio/v5/developer/toolchains/gnu_arm/12.2.rel1_2023.7/bin/../lib/gcc/arm-none-eabi/12.2.1/thumb/v8-m.main+fp/hard\libgcc.a(_dvmd_tls.o)
 .bss           0x00000000        0x0 c:/siliconlabs/simplicitystudio/v5/developer/toolchains/gnu_arm/12.2.rel1_2023.7/bin/../lib/gcc/arm-none-eabi/12.2.1/thumb/v8-m.main+fp/hard\libgcc.a(_dvmd_tls.o)
 .text          0x00000000        0x0 c:/siliconlabs/simplicitystudio/v5/developer/toolchains/gnu_arm/12.2.rel1_2023.7/bin/../lib/gcc/arm-none-eabi/12.2.1/thumb/v8-m.main+fp/hard\libc_nano.a(libc_a-exit.o)
 .data          0x00000000        0x0 c:/siliconlabs/simplicitystudio/v5/developer/toolchains/gnu_arm/12.2.rel1_2023.7/bin/../lib/gcc/arm-none-eabi/12.2.1/thumb/v8-m.main+fp/hard\libc_nano.a(libc_a-exit.o)
 .bss           0x00000000        0x0 c:/siliconlabs/simplicitystudio/v5/developer/toolchains/gnu_arm/12.2.rel1_2023.7/bin/../lib/gcc/arm-none-eabi/12.2.1/thumb/v8-m.main+fp/hard\libc_nano.a(libc_a-exit.o)
 .text          0x00000000        0x0 c:/siliconlabs/simplicitystudio/v5/developer/toolchains/gnu_arm/12.2.rel1_2023.7/bin/../lib/gcc/arm-none-eabi/12.2.1/thumb/v8-m.main+fp/hard\libc_nano.a(libc_a-findfp.o)
 .data          0x00000000        0x0 c:/siliconlabs/simplicitystudio/v5/developer/toolchains/gnu_arm/12.2.rel1_2023.7/bin/../lib/gcc/arm-none-eabi/12.2.1/thumb/v8-m.main+fp/hard\libc_nano.a(libc_a-findfp.o)
 .bss           0x00000000        0x0 c:/siliconlabs/simplicitystudio/v5/developer/toolchains/gnu_arm/12.2.rel1_2023.7/bin/../lib/gcc/arm-none-eabi/12.2.1/thumb/v8-m.main+fp/hard\libc_nano.a(libc_a-findfp.o)
 .text.__fp_lock
                0x00000000       0x18 c:/siliconlabs/simplicitystudio/v5/developer/toolchains/gnu_arm/12.2.rel1_2023.7/bin/../lib/gcc/arm-none-eabi/12.2.1/thumb/v8-m.main+fp/hard\libc_nano.a(libc_a-findfp.o)
 .text.__fp_unlock
                0x00000000       0x18 c:/siliconlabs/simplicitystudio/v5/developer/toolchains/gnu_arm/12.2.rel1_2023.7/bin/../lib/gcc/arm-none-eabi/12.2.1/thumb/v8-m.main+fp/hard\libc_nano.a(libc_a-findfp.o)
 .text.__sfp    0x00000000       0xa4 c:/siliconlabs/simplicitystudio/v5/developer/toolchains/gnu_arm/12.2.rel1_2023.7/bin/../lib/gcc/arm-none-eabi/12.2.1/thumb/v8-m.main+fp/hard\libc_nano.a(libc_a-findfp.o)
 .text.__fp_lock_all
                0x00000000       0x1c c:/siliconlabs/simplicitystudio/v5/developer/toolchains/gnu_arm/12.2.rel1_2023.7/bin/../lib/gcc/arm-none-eabi/12.2.1/thumb/v8-m.main+fp/hard\libc_nano.a(libc_a-findfp.o)
 .text.__fp_unlock_all
                0x00000000       0x1c c:/siliconlabs/simplicitystudio/v5/developer/toolchains/gnu_arm/12.2.rel1_2023.7/bin/../lib/gcc/arm-none-eabi/12.2.1/thumb/v8-m.main+fp/hard\libc_nano.a(libc_a-findfp.o)
 .text          0x00000000        0x0 c:/siliconlabs/simplicitystudio/v5/developer/toolchains/gnu_arm/12.2.rel1_2023.7/bin/../lib/gcc/arm-none-eabi/12.2.1/thumb/v8-m.main+fp/hard\libc_nano.a(libc_a-fwalk.o)
 .data          0x00000000        0x0 c:/siliconlabs/simplicitystudio/v5/developer/toolchains/gnu_arm/12.2.rel1_2023.7/bin/../lib/gcc/arm-none-eabi/12.2.1/thumb/v8-m.main+fp/hard\libc_nano.a(libc_a-fwalk.o)
 .bss           0x00000000        0x0 c:/siliconlabs/simplicitystudio/v5/developer/toolchains/gnu_arm/12.2.rel1_2023.7/bin/../lib/gcc/arm-none-eabi/12.2.1/thumb/v8-m.main+fp/hard\libc_nano.a(libc_a-fwalk.o)
 .text          0x00000000        0x0 c:/siliconlabs/simplicitystudio/v5/developer/toolchains/gnu_arm/12.2.rel1_2023.7/bin/../lib/gcc/arm-none-eabi/12.2.1/thumb/v8-m.main+fp/hard\libc_nano.a(libc_a-setvbuf.o)
 .data          0x00000000        0x0 c:/siliconlabs/simplicitystudio/v5/developer/toolchains/gnu_arm/12.2.rel1_2023.7/bin/../lib/gcc/arm-none-eabi/12.2.1/thumb/v8-m.main+fp/hard\libc_nano.a(libc_a-setvbuf.o)
 .bss           0x00000000        0x0 c:/siliconlabs/simplicitystudio/v5/developer/toolchains/gnu_arm/12.2.rel1_2023.7/bin/../lib/gcc/arm-none-eabi/12.2.1/thumb/v8-m.main+fp/hard\libc_nano.a(libc_a-setvbuf.o)
 .text          0x00000000        0x0 c:/siliconlabs/simplicitystudio/v5/developer/toolchains/gnu_arm/12.2.rel1_2023.7/bin/../lib/gcc/arm-none-eabi/12.2.1/thumb/v8-m.main+fp/hard\libc_nano.a(libc_a-stdio.o)
 .data          0x00000000        0x0 c:/siliconlabs/simplicitystudio/v5/developer/toolchains/gnu_arm/12.2.rel1_2023.7/bin/../lib/gcc/arm-none-eabi/12.2.1/thumb/v8-m.main+fp/hard\libc_nano.a(libc_a-stdio.o)
 .bss           0x00000000        0x0 c:/siliconlabs/simplicitystudio/v5/developer/toolchains/gnu_arm/12.2.rel1_2023.7/bin/../lib/gcc/arm-none-eabi/12.2.1/thumb/v8-m.main+fp/hard\libc_nano.a(libc_a-stdio.o)
 .text.__seofread
                0x00000000        0x4 c:/siliconlabs/simplicitystudio/v5/developer/toolchains/gnu_arm/12.2.rel1_2023.7/bin/../lib/gcc/arm-none-eabi/12.2.1/thumb/v8-m.main+fp/hard\libc_nano.a(libc_a-stdio.o)
 .text          0x00000000        0x0 c:/siliconlabs/simplicitystudio/v5/developer/toolchains/gnu_arm/12.2.rel1_2023.7/bin/../lib/gcc/arm-none-eabi/12.2.1/thumb/v8-m.main+fp/hard\libc_nano.a(libc_a-vprintf.o)
 .data          0x00000000        0x0 c:/siliconlabs/simplicitystudio/v5/developer/toolchains/gnu_arm/12.2.rel1_2023.7/bin/../lib/gcc/arm-none-eabi/12.2.1/thumb/v8-m.main+fp/hard\libc_nano.a(libc_a-vprintf.o)
 .bss           0x00000000        0x0 c:/siliconlabs/simplicitystudio/v5/developer/toolchains/gnu_arm/12.2.rel1_2023.7/bin/../lib/gcc/arm-none-eabi/12.2.1/thumb/v8-m.main+fp/hard\libc_nano.a(libc_a-vprintf.o)
 .text._vprintf_r
                0x00000000        0xa c:/siliconlabs/simplicitystudio/v5/developer/toolchains/gnu_arm/12.2.rel1_2023.7/bin/../lib/gcc/arm-none-eabi/12.2.1/thumb/v8-m.main+fp/hard\libc_nano.a(libc_a-vprintf.o)
 .text          0x00000000        0x0 c:/siliconlabs/simplicitystudio/v5/developer/toolchains/gnu_arm/12.2.rel1_2023.7/bin/../lib/gcc/arm-none-eabi/12.2.1/thumb/v8-m.main+fp/hard\libc_nano.a(libc_a-memset.o)
 .data          0x00000000        0x0 c:/siliconlabs/simplicitystudio/v5/developer/toolchains/gnu_arm/12.2.rel1_2023.7/bin/../lib/gcc/arm-none-eabi/12.2.1/thumb/v8-m.main+fp/hard\libc_nano.a(libc_a-memset.o)
 .bss           0x00000000        0x0 c:/siliconlabs/simplicitystudio/v5/developer/toolchains/gnu_arm/12.2.rel1_2023.7/bin/../lib/gcc/arm-none-eabi/12.2.1/thumb/v8-m.main+fp/hard\libc_nano.a(libc_a-memset.o)
 .text          0x00000000        0x0 c:/siliconlabs/simplicitystudio/v5/developer/toolchains/gnu_arm/12.2.rel1_2023.7/bin/../lib/gcc/arm-none-eabi/12.2.1/thumb/v8-m.main+fp/hard\libc_nano.a(libc_a-closer.o)
 .data          0x00000000        0x0 c:/siliconlabs/simplicitystudio/v5/developer/toolchains/gnu_arm/12.2.rel1_2023.7/bin/../lib/gcc/arm-none-eabi/12.2.1/thumb/v8-m.main+fp/hard\libc_nano.a(libc_a-closer.o)
 .bss           0x00000000        0x0 c:/siliconlabs/simplicitystudio/v5/developer/toolchains/gnu_arm/12.2.rel1_2023.7/bin/../lib/gcc/arm-none-eabi/12.2.1/thumb/v8-m.main+fp/hard\libc_nano.a(libc_a-closer.o)
 .text          0x00000000        0x0 c:/siliconlabs/simplicitystudio/v5/developer/toolchains/gnu_arm/12.2.rel1_2023.7/bin/../lib/gcc/arm-none-eabi/12.2.1/thumb/v8-m.main+fp/hard\libc_nano.a(libc_a-reent.o)
 .data          0x00000000        0x0 c:/siliconlabs/simplicitystudio/v5/developer/toolchains/gnu_arm/12.2.rel1_2023.7/bin/../lib/gcc/arm-none-eabi/12.2.1/thumb/v8-m.main+fp/hard\libc_nano.a(libc_a-reent.o)
 .bss           0x00000000        0x0 c:/siliconlabs/simplicitystudio/v5/developer/toolchains/gnu_arm/12.2.rel1_2023.7/bin/../lib/gcc/arm-none-eabi/12.2.1/thumb/v8-m.main+fp/hard\libc_nano.a(libc_a-reent.o)
 .text._reclaim_reent
                0x00000000       0xac c:/siliconlabs/simplicitystudio/v5/developer/toolchains/gnu_arm/12.2.rel1_2023.7/bin/../lib/gcc/arm-none-eabi/12.2.1/thumb/v8-m.main+fp/hard\libc_nano.a(libc_a-reent.o)
 .text          0x00000000        0x0 c:/siliconlabs/simplicitystudio/v5/developer/toolchains/gnu_arm/12.2.rel1_2023.7/bin/../lib/gcc/arm-none-eabi/12.2.1/thumb/v8-m.main+fp/hard\libc_nano.a(libc_a-impure.o)
 .data          0x00000000        0x0 c:/siliconlabs/simplicitystudio/v5/developer/toolchains/gnu_arm/12.2.rel1_2023.7/bin/../lib/gcc/arm-none-eabi/12.2.1/thumb/v8-m.main+fp/hard\libc_nano.a(libc_a-impure.o)
 .bss           0x00000000        0x0 c:/siliconlabs/simplicitystudio/v5/developer/toolchains/gnu_arm/12.2.rel1_2023.7/bin/../lib/gcc/arm-none-eabi/12.2.1/thumb/v8-m.main+fp/hard\libc_nano.a(libc_a-impure.o)
 .text          0x00000000        0x0 c:/siliconlabs/simplicitystudio/v5/developer/toolchains/gnu_arm/12.2.rel1_2023.7/bin/../lib/gcc/arm-none-eabi/12.2.1/thumb/v8-m.main+fp/hard\libc_nano.a(libc_a-lseekr.o)
 .data          0x00000000        0x0 c:/siliconlabs/simplicitystudio/v5/developer/toolchains/gnu_arm/12.2.rel1_2023.7/bin/../lib/gcc/arm-none-eabi/12.2.1/thumb/v8-m.main+fp/hard\libc_nano.a(libc_a-lseekr.o)
 .bss           0x00000000        0x0 c:/siliconlabs/simplicitystudio/v5/developer/toolchains/gnu_arm/12.2.rel1_2023.7/bin/../lib/gcc/arm-none-eabi/12.2.1/thumb/v8-m.main+fp/hard\libc_nano.a(libc_a-lseekr.o)
 .text          0x00000000        0x0 c:/siliconlabs/simplicitystudio/v5/developer/toolchains/gnu_arm/12.2.rel1_2023.7/bin/../lib/gcc/arm-none-eabi/12.2.1/thumb/v8-m.main+fp/hard\libc_nano.a(libc_a-readr.o)
 .data          0x00000000        0x0 c:/siliconlabs/simplicitystudio/v5/developer/toolchains/gnu_arm/12.2.rel1_2023.7/bin/../lib/gcc/arm-none-eabi/12.2.1/thumb/v8-m.main+fp/hard\libc_nano.a(libc_a-readr.o)
 .bss           0x00000000        0x0 c:/siliconlabs/simplicitystudio/v5/developer/toolchains/gnu_arm/12.2.rel1_2023.7/bin/../lib/gcc/arm-none-eabi/12.2.1/thumb/v8-m.main+fp/hard\libc_nano.a(libc_a-readr.o)
 .text          0x00000000        0x0 c:/siliconlabs/simplicitystudio/v5/developer/toolchains/gnu_arm/12.2.rel1_2023.7/bin/../lib/gcc/arm-none-eabi/12.2.1/thumb/v8-m.main+fp/hard\libc_nano.a(libc_a-writer.o)
 .data          0x00000000        0x0 c:/siliconlabs/simplicitystudio/v5/developer/toolchains/gnu_arm/12.2.rel1_2023.7/bin/../lib/gcc/arm-none-eabi/12.2.1/thumb/v8-m.main+fp/hard\libc_nano.a(libc_a-writer.o)
 .bss           0x00000000        0x0 c:/siliconlabs/simplicitystudio/v5/developer/toolchains/gnu_arm/12.2.rel1_2023.7/bin/../lib/gcc/arm-none-eabi/12.2.1/thumb/v8-m.main+fp/hard\libc_nano.a(libc_a-writer.o)
 .text          0x00000000        0x0 c:/siliconlabs/simplicitystudio/v5/developer/toolchains/gnu_arm/12.2.rel1_2023.7/bin/../lib/gcc/arm-none-eabi/12.2.1/thumb/v8-m.main+fp/hard\libc_nano.a(libc_a-init.o)
 .data          0x00000000        0x0 c:/siliconlabs/simplicitystudio/v5/developer/toolchains/gnu_arm/12.2.rel1_2023.7/bin/../lib/gcc/arm-none-eabi/12.2.1/thumb/v8-m.main+fp/hard\libc_nano.a(libc_a-init.o)
 .bss           0x00000000        0x0 c:/siliconlabs/simplicitystudio/v5/developer/toolchains/gnu_arm/12.2.rel1_2023.7/bin/../lib/gcc/arm-none-eabi/12.2.1/thumb/v8-m.main+fp/hard\libc_nano.a(libc_a-init.o)
 .text          0x00000000        0x0 c:/siliconlabs/simplicitystudio/v5/developer/toolchains/gnu_arm/12.2.rel1_2023.7/bin/../lib/gcc/arm-none-eabi/12.2.1/thumb/v8-m.main+fp/hard\libc_nano.a(libc_a-lock.o)
 .data          0x00000000        0x0 c:/siliconlabs/simplicitystudio/v5/developer/toolchains/gnu_arm/12.2.rel1_2023.7/bin/../lib/gcc/arm-none-eabi/12.2.1/thumb/v8-m.main+fp/hard\libc_nano.a(libc_a-lock.o)
 .bss           0x00000000        0x0 c:/siliconlabs/simplicitystudio/v5/developer/toolchains/gnu_arm/12.2.rel1_2023.7/bin/../lib/gcc/arm-none-eabi/12.2.1/thumb/v8-m.main+fp/hard\libc_nano.a(libc_a-lock.o)
 .text.__retarget_lock_init
                0x00000000        0x2 c:/siliconlabs/simplicitystudio/v5/developer/toolchains/gnu_arm/12.2.rel1_2023.7/bin/../lib/gcc/arm-none-eabi/12.2.1/thumb/v8-m.main+fp/hard\libc_nano.a(libc_a-lock.o)
 .text.__retarget_lock_close
                0x00000000        0x2 c:/siliconlabs/simplicitystudio/v5/developer/toolchains/gnu_arm/12.2.rel1_2023.7/bin/../lib/gcc/arm-none-eabi/12.2.1/thumb/v8-m.main+fp/hard\libc_nano.a(libc_a-lock.o)
 .text.__retarget_lock_close_recursive
                0x00000000        0x2 c:/siliconlabs/simplicitystudio/v5/developer/toolchains/gnu_arm/12.2.rel1_2023.7/bin/../lib/gcc/arm-none-eabi/12.2.1/thumb/v8-m.main+fp/hard\libc_nano.a(libc_a-lock.o)
 .text.__retarget_lock_acquire
                0x00000000        0x2 c:/siliconlabs/simplicitystudio/v5/developer/toolchains/gnu_arm/12.2.rel1_2023.7/bin/../lib/gcc/arm-none-eabi/12.2.1/thumb/v8-m.main+fp/hard\libc_nano.a(libc_a-lock.o)
 .text.__retarget_lock_try_acquire
                0x00000000        0x4 c:/siliconlabs/simplicitystudio/v5/developer/toolchains/gnu_arm/12.2.rel1_2023.7/bin/../lib/gcc/arm-none-eabi/12.2.1/thumb/v8-m.main+fp/hard\libc_nano.a(libc_a-lock.o)
 .text.__retarget_lock_try_acquire_recursive
                0x00000000        0x4 c:/siliconlabs/simplicitystudio/v5/developer/toolchains/gnu_arm/12.2.rel1_2023.7/bin/../lib/gcc/arm-none-eabi/12.2.1/thumb/v8-m.main+fp/hard\libc_nano.a(libc_a-lock.o)
 .text.__retarget_lock_release
                0x00000000        0x2 c:/siliconlabs/simplicitystudio/v5/developer/toolchains/gnu_arm/12.2.rel1_2023.7/bin/../lib/gcc/arm-none-eabi/12.2.1/thumb/v8-m.main+fp/hard\libc_nano.a(libc_a-lock.o)
 .bss.__lock___arc4random_mutex
                0x00000000        0x1 c:/siliconlabs/simplicitystudio/v5/developer/toolchains/gnu_arm/12.2.rel1_2023.7/bin/../lib/gcc/arm-none-eabi/12.2.1/thumb/v8-m.main+fp/hard\libc_nano.a(libc_a-lock.o)
 .bss.__lock___dd_hash_mutex
                0x00000000        0x1 c:/siliconlabs/simplicitystudio/v5/developer/toolchains/gnu_arm/12.2.rel1_2023.7/bin/../lib/gcc/arm-none-eabi/12.2.1/thumb/v8-m.main+fp/hard\libc_nano.a(libc_a-lock.o)
 .bss.__lock___tz_mutex
                0x00000000        0x1 c:/siliconlabs/simplicitystudio/v5/developer/toolchains/gnu_arm/12.2.rel1_2023.7/bin/../lib/gcc/arm-none-eabi/12.2.1/thumb/v8-m.main+fp/hard\libc_nano.a(libc_a-lock.o)
 .bss.__lock___env_recursive_mutex
                0x00000000        0x1 c:/siliconlabs/simplicitystudio/v5/developer/toolchains/gnu_arm/12.2.rel1_2023.7/bin/../lib/gcc/arm-none-eabi/12.2.1/thumb/v8-m.main+fp/hard\libc_nano.a(libc_a-lock.o)
 .bss.__lock___at_quick_exit_mutex
                0x00000000        0x1 c:/siliconlabs/simplicitystudio/v5/developer/toolchains/gnu_arm/12.2.rel1_2023.7/bin/../lib/gcc/arm-none-eabi/12.2.1/thumb/v8-m.main+fp/hard\libc_nano.a(libc_a-lock.o)
 .bss.__lock___atexit_recursive_mutex
                0x00000000        0x1 c:/siliconlabs/simplicitystudio/v5/developer/toolchains/gnu_arm/12.2.rel1_2023.7/bin/../lib/gcc/arm-none-eabi/12.2.1/thumb/v8-m.main+fp/hard\libc_nano.a(libc_a-lock.o)
 .text          0x00000000       0x14 c:/siliconlabs/simplicitystudio/v5/developer/toolchains/gnu_arm/12.2.rel1_2023.7/bin/../lib/gcc/arm-none-eabi/12.2.1/thumb/v8-m.main+fp/hard\libc_nano.a(libc_a-strcmp.o)
 .data          0x00000000        0x0 c:/siliconlabs/simplicitystudio/v5/developer/toolchains/gnu_arm/12.2.rel1_2023.7/bin/../lib/gcc/arm-none-eabi/12.2.1/thumb/v8-m.main+fp/hard\libc_nano.a(libc_a-strcmp.o)
 .bss           0x00000000        0x0 c:/siliconlabs/simplicitystudio/v5/developer/toolchains/gnu_arm/12.2.rel1_2023.7/bin/../lib/gcc/arm-none-eabi/12.2.1/thumb/v8-m.main+fp/hard\libc_nano.a(libc_a-strcmp.o)
 .debug_line_str
                0x00000000       0xee c:/siliconlabs/simplicitystudio/v5/developer/toolchains/gnu_arm/12.2.rel1_2023.7/bin/../lib/gcc/arm-none-eabi/12.2.1/thumb/v8-m.main+fp/hard\libc_nano.a(libc_a-strcmp.o)
 .debug_frame   0x00000000       0x20 c:/siliconlabs/simplicitystudio/v5/developer/toolchains/gnu_arm/12.2.rel1_2023.7/bin/../lib/gcc/arm-none-eabi/12.2.1/thumb/v8-m.main+fp/hard\libc_nano.a(libc_a-strcmp.o)
 .ARM.attributes
                0x00000000       0x24 c:/siliconlabs/simplicitystudio/v5/developer/toolchains/gnu_arm/12.2.rel1_2023.7/bin/../lib/gcc/arm-none-eabi/12.2.1/thumb/v8-m.main+fp/hard\libc_nano.a(libc_a-strcmp.o)
 .text          0x00000000        0x0 c:/siliconlabs/simplicitystudio/v5/developer/toolchains/gnu_arm/12.2.rel1_2023.7/bin/../lib/gcc/arm-none-eabi/12.2.1/thumb/v8-m.main+fp/hard\libc_nano.a(libc_a-freer.o)
 .data          0x00000000        0x0 c:/siliconlabs/simplicitystudio/v5/developer/toolchains/gnu_arm/12.2.rel1_2023.7/bin/../lib/gcc/arm-none-eabi/12.2.1/thumb/v8-m.main+fp/hard\libc_nano.a(libc_a-freer.o)
 .bss           0x00000000        0x0 c:/siliconlabs/simplicitystudio/v5/developer/toolchains/gnu_arm/12.2.rel1_2023.7/bin/../lib/gcc/arm-none-eabi/12.2.1/thumb/v8-m.main+fp/hard\libc_nano.a(libc_a-freer.o)
 .text          0x00000000        0x0 c:/siliconlabs/simplicitystudio/v5/developer/toolchains/gnu_arm/12.2.rel1_2023.7/bin/../lib/gcc/arm-none-eabi/12.2.1/thumb/v8-m.main+fp/hard\libc_nano.a(libc_a-malloc.o)
 .data          0x00000000        0x0 c:/siliconlabs/simplicitystudio/v5/developer/toolchains/gnu_arm/12.2.rel1_2023.7/bin/../lib/gcc/arm-none-eabi/12.2.1/thumb/v8-m.main+fp/hard\libc_nano.a(libc_a-malloc.o)
 .bss           0x00000000        0x0 c:/siliconlabs/simplicitystudio/v5/developer/toolchains/gnu_arm/12.2.rel1_2023.7/bin/../lib/gcc/arm-none-eabi/12.2.1/thumb/v8-m.main+fp/hard\libc_nano.a(libc_a-malloc.o)
 .text.free     0x00000000       0x10 c:/siliconlabs/simplicitystudio/v5/developer/toolchains/gnu_arm/12.2.rel1_2023.7/bin/../lib/gcc/arm-none-eabi/12.2.1/thumb/v8-m.main+fp/hard\libc_nano.a(libc_a-malloc.o)
 .text          0x00000000        0x0 c:/siliconlabs/simplicitystudio/v5/developer/toolchains/gnu_arm/12.2.rel1_2023.7/bin/../lib/gcc/arm-none-eabi/12.2.1/thumb/v8-m.main+fp/hard\libc_nano.a(libc_a-mallocr.o)
 .data          0x00000000        0x0 c:/siliconlabs/simplicitystudio/v5/developer/toolchains/gnu_arm/12.2.rel1_2023.7/bin/../lib/gcc/arm-none-eabi/12.2.1/thumb/v8-m.main+fp/hard\libc_nano.a(libc_a-mallocr.o)
 .bss           0x00000000        0x0 c:/siliconlabs/simplicitystudio/v5/developer/toolchains/gnu_arm/12.2.rel1_2023.7/bin/../lib/gcc/arm-none-eabi/12.2.1/thumb/v8-m.main+fp/hard\libc_nano.a(libc_a-mallocr.o)
 .text          0x00000000        0x0 c:/siliconlabs/simplicitystudio/v5/developer/toolchains/gnu_arm/12.2.rel1_2023.7/bin/../lib/gcc/arm-none-eabi/12.2.1/thumb/v8-m.main+fp/hard\libc_nano.a(libc_a-mlock.o)
 .data          0x00000000        0x0 c:/siliconlabs/simplicitystudio/v5/developer/toolchains/gnu_arm/12.2.rel1_2023.7/bin/../lib/gcc/arm-none-eabi/12.2.1/thumb/v8-m.main+fp/hard\libc_nano.a(libc_a-mlock.o)
 .bss           0x00000000        0x0 c:/siliconlabs/simplicitystudio/v5/developer/toolchains/gnu_arm/12.2.rel1_2023.7/bin/../lib/gcc/arm-none-eabi/12.2.1/thumb/v8-m.main+fp/hard\libc_nano.a(libc_a-mlock.o)
 .text          0x00000000        0x0 c:/siliconlabs/simplicitystudio/v5/developer/toolchains/gnu_arm/12.2.rel1_2023.7/bin/../lib/gcc/arm-none-eabi/12.2.1/thumb/v8-m.main+fp/hard\libc_nano.a(libc_a-nano-vfprintf.o)
 .data          0x00000000        0x0 c:/siliconlabs/simplicitystudio/v5/developer/toolchains/gnu_arm/12.2.rel1_2023.7/bin/../lib/gcc/arm-none-eabi/12.2.1/thumb/v8-m.main+fp/hard\libc_nano.a(libc_a-nano-vfprintf.o)
 .bss           0x00000000        0x0 c:/siliconlabs/simplicitystudio/v5/developer/toolchains/gnu_arm/12.2.rel1_2023.7/bin/../lib/gcc/arm-none-eabi/12.2.1/thumb/v8-m.main+fp/hard\libc_nano.a(libc_a-nano-vfprintf.o)
 .text.__sprint_r
                0x00000000       0x1a c:/siliconlabs/simplicitystudio/v5/developer/toolchains/gnu_arm/12.2.rel1_2023.7/bin/../lib/gcc/arm-none-eabi/12.2.1/thumb/v8-m.main+fp/hard\libc_nano.a(libc_a-nano-vfprintf.o)
 .text.vfprintf
                0x00000000       0x14 c:/siliconlabs/simplicitystudio/v5/developer/toolchains/gnu_arm/12.2.rel1_2023.7/bin/../lib/gcc/arm-none-eabi/12.2.1/thumb/v8-m.main+fp/hard\libc_nano.a(libc_a-nano-vfprintf.o)
 .text          0x00000000        0x0 c:/siliconlabs/simplicitystudio/v5/developer/toolchains/gnu_arm/12.2.rel1_2023.7/bin/../lib/gcc/arm-none-eabi/12.2.1/thumb/v8-m.main+fp/hard\libc_nano.a(libc_a-nano-vfprintf_i.o)
 .data          0x00000000        0x0 c:/siliconlabs/simplicitystudio/v5/developer/toolchains/gnu_arm/12.2.rel1_2023.7/bin/../lib/gcc/arm-none-eabi/12.2.1/thumb/v8-m.main+fp/hard\libc_nano.a(libc_a-nano-vfprintf_i.o)
 .bss           0x00000000        0x0 c:/siliconlabs/simplicitystudio/v5/developer/toolchains/gnu_arm/12.2.rel1_2023.7/bin/../lib/gcc/arm-none-eabi/12.2.1/thumb/v8-m.main+fp/hard\libc_nano.a(libc_a-nano-vfprintf_i.o)
 .text          0x00000000        0x0 c:/siliconlabs/simplicitystudio/v5/developer/toolchains/gnu_arm/12.2.rel1_2023.7/bin/../lib/gcc/arm-none-eabi/12.2.1/thumb/v8-m.main+fp/hard\libc_nano.a(libc_a-fflush.o)
 .data          0x00000000        0x0 c:/siliconlabs/simplicitystudio/v5/developer/toolchains/gnu_arm/12.2.rel1_2023.7/bin/../lib/gcc/arm-none-eabi/12.2.1/thumb/v8-m.main+fp/hard\libc_nano.a(libc_a-fflush.o)
 .bss           0x00000000        0x0 c:/siliconlabs/simplicitystudio/v5/developer/toolchains/gnu_arm/12.2.rel1_2023.7/bin/../lib/gcc/arm-none-eabi/12.2.1/thumb/v8-m.main+fp/hard\libc_nano.a(libc_a-fflush.o)
 .text.fflush   0x00000000       0x28 c:/siliconlabs/simplicitystudio/v5/developer/toolchains/gnu_arm/12.2.rel1_2023.7/bin/../lib/gcc/arm-none-eabi/12.2.1/thumb/v8-m.main+fp/hard\libc_nano.a(libc_a-fflush.o)
 .text          0x00000000        0x0 c:/siliconlabs/simplicitystudio/v5/developer/toolchains/gnu_arm/12.2.rel1_2023.7/bin/../lib/gcc/arm-none-eabi/12.2.1/thumb/v8-m.main+fp/hard\libc_nano.a(libc_a-fvwrite.o)
 .data          0x00000000        0x0 c:/siliconlabs/simplicitystudio/v5/developer/toolchains/gnu_arm/12.2.rel1_2023.7/bin/../lib/gcc/arm-none-eabi/12.2.1/thumb/v8-m.main+fp/hard\libc_nano.a(libc_a-fvwrite.o)
 .bss           0x00000000        0x0 c:/siliconlabs/simplicitystudio/v5/developer/toolchains/gnu_arm/12.2.rel1_2023.7/bin/../lib/gcc/arm-none-eabi/12.2.1/thumb/v8-m.main+fp/hard\libc_nano.a(libc_a-fvwrite.o)
 .text.__sfvwrite_r
                0x00000000      0x2a0 c:/siliconlabs/simplicitystudio/v5/developer/toolchains/gnu_arm/12.2.rel1_2023.7/bin/../lib/gcc/arm-none-eabi/12.2.1/thumb/v8-m.main+fp/hard\libc_nano.a(libc_a-fvwrite.o)
 .debug_frame   0x00000000       0x3c c:/siliconlabs/simplicitystudio/v5/developer/toolchains/gnu_arm/12.2.rel1_2023.7/bin/../lib/gcc/arm-none-eabi/12.2.1/thumb/v8-m.main+fp/hard\libc_nano.a(libc_a-fvwrite.o)
 .ARM.attributes
                0x00000000       0x38 c:/siliconlabs/simplicitystudio/v5/developer/toolchains/gnu_arm/12.2.rel1_2023.7/bin/../lib/gcc/arm-none-eabi/12.2.1/thumb/v8-m.main+fp/hard\libc_nano.a(libc_a-fvwrite.o)
 .text          0x00000000        0x0 c:/siliconlabs/simplicitystudio/v5/developer/toolchains/gnu_arm/12.2.rel1_2023.7/bin/../lib/gcc/arm-none-eabi/12.2.1/thumb/v8-m.main+fp/hard\libc_nano.a(libc_a-makebuf.o)
 .data          0x00000000        0x0 c:/siliconlabs/simplicitystudio/v5/developer/toolchains/gnu_arm/12.2.rel1_2023.7/bin/../lib/gcc/arm-none-eabi/12.2.1/thumb/v8-m.main+fp/hard\libc_nano.a(libc_a-makebuf.o)
 .bss           0x00000000        0x0 c:/siliconlabs/simplicitystudio/v5/developer/toolchains/gnu_arm/12.2.rel1_2023.7/bin/../lib/gcc/arm-none-eabi/12.2.1/thumb/v8-m.main+fp/hard\libc_nano.a(libc_a-makebuf.o)
 .text          0x00000000        0x0 c:/siliconlabs/simplicitystudio/v5/developer/toolchains/gnu_arm/12.2.rel1_2023.7/bin/../lib/gcc/arm-none-eabi/12.2.1/thumb/v8-m.main+fp/hard\libc_nano.a(libc_a-wbuf.o)
 .data          0x00000000        0x0 c:/siliconlabs/simplicitystudio/v5/developer/toolchains/gnu_arm/12.2.rel1_2023.7/bin/../lib/gcc/arm-none-eabi/12.2.1/thumb/v8-m.main+fp/hard\libc_nano.a(libc_a-wbuf.o)
 .bss           0x00000000        0x0 c:/siliconlabs/simplicitystudio/v5/developer/toolchains/gnu_arm/12.2.rel1_2023.7/bin/../lib/gcc/arm-none-eabi/12.2.1/thumb/v8-m.main+fp/hard\libc_nano.a(libc_a-wbuf.o)
 .text.__swbuf  0x00000000       0x10 c:/siliconlabs/simplicitystudio/v5/developer/toolchains/gnu_arm/12.2.rel1_2023.7/bin/../lib/gcc/arm-none-eabi/12.2.1/thumb/v8-m.main+fp/hard\libc_nano.a(libc_a-wbuf.o)
 .text          0x00000000        0x0 c:/siliconlabs/simplicitystudio/v5/developer/toolchains/gnu_arm/12.2.rel1_2023.7/bin/../lib/gcc/arm-none-eabi/12.2.1/thumb/v8-m.main+fp/hard\libc_nano.a(libc_a-wsetup.o)
 .data          0x00000000        0x0 c:/siliconlabs/simplicitystudio/v5/developer/toolchains/gnu_arm/12.2.rel1_2023.7/bin/../lib/gcc/arm-none-eabi/12.2.1/thumb/v8-m.main+fp/hard\libc_nano.a(libc_a-wsetup.o)
 .bss           0x00000000        0x0 c:/siliconlabs/simplicitystudio/v5/developer/toolchains/gnu_arm/12.2.rel1_2023.7/bin/../lib/gcc/arm-none-eabi/12.2.1/thumb/v8-m.main+fp/hard\libc_nano.a(libc_a-wsetup.o)
 .text          0x00000000        0x0 c:/siliconlabs/simplicitystudio/v5/developer/toolchains/gnu_arm/12.2.rel1_2023.7/bin/../lib/gcc/arm-none-eabi/12.2.1/thumb/v8-m.main+fp/hard\libc_nano.a(libc_a-memmove.o)
 .data          0x00000000        0x0 c:/siliconlabs/simplicitystudio/v5/developer/toolchains/gnu_arm/12.2.rel1_2023.7/bin/../lib/gcc/arm-none-eabi/12.2.1/thumb/v8-m.main+fp/hard\libc_nano.a(libc_a-memmove.o)
 .bss           0x00000000        0x0 c:/siliconlabs/simplicitystudio/v5/developer/toolchains/gnu_arm/12.2.rel1_2023.7/bin/../lib/gcc/arm-none-eabi/12.2.1/thumb/v8-m.main+fp/hard\libc_nano.a(libc_a-memmove.o)
 .text.memmove  0x00000000       0x34 c:/siliconlabs/simplicitystudio/v5/developer/toolchains/gnu_arm/12.2.rel1_2023.7/bin/../lib/gcc/arm-none-eabi/12.2.1/thumb/v8-m.main+fp/hard\libc_nano.a(libc_a-memmove.o)
 .debug_frame   0x00000000       0x28 c:/siliconlabs/simplicitystudio/v5/developer/toolchains/gnu_arm/12.2.rel1_2023.7/bin/../lib/gcc/arm-none-eabi/12.2.1/thumb/v8-m.main+fp/hard\libc_nano.a(libc_a-memmove.o)
 .ARM.attributes
                0x00000000       0x38 c:/siliconlabs/simplicitystudio/v5/developer/toolchains/gnu_arm/12.2.rel1_2023.7/bin/../lib/gcc/arm-none-eabi/12.2.1/thumb/v8-m.main+fp/hard\libc_nano.a(libc_a-memmove.o)
 .text          0x00000000        0x0 c:/siliconlabs/simplicitystudio/v5/developer/toolchains/gnu_arm/12.2.rel1_2023.7/bin/../lib/gcc/arm-none-eabi/12.2.1/thumb/v8-m.main+fp/hard\libc_nano.a(libc_a-fstatr.o)
 .data          0x00000000        0x0 c:/siliconlabs/simplicitystudio/v5/developer/toolchains/gnu_arm/12.2.rel1_2023.7/bin/../lib/gcc/arm-none-eabi/12.2.1/thumb/v8-m.main+fp/hard\libc_nano.a(libc_a-fstatr.o)
 .bss           0x00000000        0x0 c:/siliconlabs/simplicitystudio/v5/developer/toolchains/gnu_arm/12.2.rel1_2023.7/bin/../lib/gcc/arm-none-eabi/12.2.1/thumb/v8-m.main+fp/hard\libc_nano.a(libc_a-fstatr.o)
 .text          0x00000000        0x0 c:/siliconlabs/simplicitystudio/v5/developer/toolchains/gnu_arm/12.2.rel1_2023.7/bin/../lib/gcc/arm-none-eabi/12.2.1/thumb/v8-m.main+fp/hard\libc_nano.a(libc_a-isattyr.o)
 .data          0x00000000        0x0 c:/siliconlabs/simplicitystudio/v5/developer/toolchains/gnu_arm/12.2.rel1_2023.7/bin/../lib/gcc/arm-none-eabi/12.2.1/thumb/v8-m.main+fp/hard\libc_nano.a(libc_a-isattyr.o)
 .bss           0x00000000        0x0 c:/siliconlabs/simplicitystudio/v5/developer/toolchains/gnu_arm/12.2.rel1_2023.7/bin/../lib/gcc/arm-none-eabi/12.2.1/thumb/v8-m.main+fp/hard\libc_nano.a(libc_a-isattyr.o)
 .text          0x00000000        0x0 c:/siliconlabs/simplicitystudio/v5/developer/toolchains/gnu_arm/12.2.rel1_2023.7/bin/../lib/gcc/arm-none-eabi/12.2.1/thumb/v8-m.main+fp/hard\libc_nano.a(libc_a-sbrkr.o)
 .data          0x00000000        0x0 c:/siliconlabs/simplicitystudio/v5/developer/toolchains/gnu_arm/12.2.rel1_2023.7/bin/../lib/gcc/arm-none-eabi/12.2.1/thumb/v8-m.main+fp/hard\libc_nano.a(libc_a-sbrkr.o)
 .bss           0x00000000        0x0 c:/siliconlabs/simplicitystudio/v5/developer/toolchains/gnu_arm/12.2.rel1_2023.7/bin/../lib/gcc/arm-none-eabi/12.2.1/thumb/v8-m.main+fp/hard\libc_nano.a(libc_a-sbrkr.o)
 .text          0x00000000        0x0 c:/siliconlabs/simplicitystudio/v5/developer/toolchains/gnu_arm/12.2.rel1_2023.7/bin/../lib/gcc/arm-none-eabi/12.2.1/thumb/v8-m.main+fp/hard\libc_nano.a(libc_a-memchr-stub.o)
 .data          0x00000000        0x0 c:/siliconlabs/simplicitystudio/v5/developer/toolchains/gnu_arm/12.2.rel1_2023.7/bin/../lib/gcc/arm-none-eabi/12.2.1/thumb/v8-m.main+fp/hard\libc_nano.a(libc_a-memchr-stub.o)
 .bss           0x00000000        0x0 c:/siliconlabs/simplicitystudio/v5/developer/toolchains/gnu_arm/12.2.rel1_2023.7/bin/../lib/gcc/arm-none-eabi/12.2.1/thumb/v8-m.main+fp/hard\libc_nano.a(libc_a-memchr-stub.o)
 .text          0x00000000        0x0 c:/siliconlabs/simplicitystudio/v5/developer/toolchains/gnu_arm/12.2.rel1_2023.7/bin/../lib/gcc/arm-none-eabi/12.2.1/thumb/v8-m.main+fp/hard\libc_nano.a(libc_a-memcpy-stub.o)
 .data          0x00000000        0x0 c:/siliconlabs/simplicitystudio/v5/developer/toolchains/gnu_arm/12.2.rel1_2023.7/bin/../lib/gcc/arm-none-eabi/12.2.1/thumb/v8-m.main+fp/hard\libc_nano.a(libc_a-memcpy-stub.o)
 .bss           0x00000000        0x0 c:/siliconlabs/simplicitystudio/v5/developer/toolchains/gnu_arm/12.2.rel1_2023.7/bin/../lib/gcc/arm-none-eabi/12.2.1/thumb/v8-m.main+fp/hard\libc_nano.a(libc_a-memcpy-stub.o)
 .text.memcpy   0x00000000       0x1a c:/siliconlabs/simplicitystudio/v5/developer/toolchains/gnu_arm/12.2.rel1_2023.7/bin/../lib/gcc/arm-none-eabi/12.2.1/thumb/v8-m.main+fp/hard\libc_nano.a(libc_a-memcpy-stub.o)
 .debug_frame   0x00000000       0x28 c:/siliconlabs/simplicitystudio/v5/developer/toolchains/gnu_arm/12.2.rel1_2023.7/bin/../lib/gcc/arm-none-eabi/12.2.1/thumb/v8-m.main+fp/hard\libc_nano.a(libc_a-memcpy-stub.o)
 .ARM.attributes
                0x00000000       0x38 c:/siliconlabs/simplicitystudio/v5/developer/toolchains/gnu_arm/12.2.rel1_2023.7/bin/../lib/gcc/arm-none-eabi/12.2.1/thumb/v8-m.main+fp/hard\libc_nano.a(libc_a-memcpy-stub.o)
 .text          0x00000000        0x0 c:/siliconlabs/simplicitystudio/v5/developer/toolchains/gnu_arm/12.2.rel1_2023.7/bin/../lib/gcc/arm-none-eabi/12.2.1/thumb/v8-m.main+fp/hard\libc_nano.a(libc_a-reallocr.o)
 .data          0x00000000        0x0 c:/siliconlabs/simplicitystudio/v5/developer/toolchains/gnu_arm/12.2.rel1_2023.7/bin/../lib/gcc/arm-none-eabi/12.2.1/thumb/v8-m.main+fp/hard\libc_nano.a(libc_a-reallocr.o)
 .bss           0x00000000        0x0 c:/siliconlabs/simplicitystudio/v5/developer/toolchains/gnu_arm/12.2.rel1_2023.7/bin/../lib/gcc/arm-none-eabi/12.2.1/thumb/v8-m.main+fp/hard\libc_nano.a(libc_a-reallocr.o)
 .text._realloc_r
                0x00000000       0x5c c:/siliconlabs/simplicitystudio/v5/developer/toolchains/gnu_arm/12.2.rel1_2023.7/bin/../lib/gcc/arm-none-eabi/12.2.1/thumb/v8-m.main+fp/hard\libc_nano.a(libc_a-reallocr.o)
 .debug_frame   0x00000000       0x3c c:/siliconlabs/simplicitystudio/v5/developer/toolchains/gnu_arm/12.2.rel1_2023.7/bin/../lib/gcc/arm-none-eabi/12.2.1/thumb/v8-m.main+fp/hard\libc_nano.a(libc_a-reallocr.o)
 .ARM.attributes
                0x00000000       0x38 c:/siliconlabs/simplicitystudio/v5/developer/toolchains/gnu_arm/12.2.rel1_2023.7/bin/../lib/gcc/arm-none-eabi/12.2.1/thumb/v8-m.main+fp/hard\libc_nano.a(libc_a-reallocr.o)
 .text          0x00000000        0x0 c:/siliconlabs/simplicitystudio/v5/developer/toolchains/gnu_arm/12.2.rel1_2023.7/bin/../lib/gcc/arm-none-eabi/12.2.1/thumb/v8-m.main+fp/hard\libc_nano.a(libc_a-msizer.o)
 .data          0x00000000        0x0 c:/siliconlabs/simplicitystudio/v5/developer/toolchains/gnu_arm/12.2.rel1_2023.7/bin/../lib/gcc/arm-none-eabi/12.2.1/thumb/v8-m.main+fp/hard\libc_nano.a(libc_a-msizer.o)
 .bss           0x00000000        0x0 c:/siliconlabs/simplicitystudio/v5/developer/toolchains/gnu_arm/12.2.rel1_2023.7/bin/../lib/gcc/arm-none-eabi/12.2.1/thumb/v8-m.main+fp/hard\libc_nano.a(libc_a-msizer.o)
 .text._malloc_usable_size_r
                0x00000000       0x10 c:/siliconlabs/simplicitystudio/v5/developer/toolchains/gnu_arm/12.2.rel1_2023.7/bin/../lib/gcc/arm-none-eabi/12.2.1/thumb/v8-m.main+fp/hard\libc_nano.a(libc_a-msizer.o)
 .debug_frame   0x00000000       0x20 c:/siliconlabs/simplicitystudio/v5/developer/toolchains/gnu_arm/12.2.rel1_2023.7/bin/../lib/gcc/arm-none-eabi/12.2.1/thumb/v8-m.main+fp/hard\libc_nano.a(libc_a-msizer.o)
 .ARM.attributes
                0x00000000       0x38 c:/siliconlabs/simplicitystudio/v5/developer/toolchains/gnu_arm/12.2.rel1_2023.7/bin/../lib/gcc/arm-none-eabi/12.2.1/thumb/v8-m.main+fp/hard\libc_nano.a(libc_a-msizer.o)
 .text          0x00000000        0x0 c:/siliconlabs/simplicitystudio/v5/developer/toolchains/gnu_arm/12.2.rel1_2023.7/bin/../lib/gcc/arm-none-eabi/12.2.1/thumb/v8-m.main+fp/hard/crtend.o
 .data          0x00000000        0x0 c:/siliconlabs/simplicitystudio/v5/developer/toolchains/gnu_arm/12.2.rel1_2023.7/bin/../lib/gcc/arm-none-eabi/12.2.1/thumb/v8-m.main+fp/hard/crtend.o
 .bss           0x00000000        0x0 c:/siliconlabs/simplicitystudio/v5/developer/toolchains/gnu_arm/12.2.rel1_2023.7/bin/../lib/gcc/arm-none-eabi/12.2.1/thumb/v8-m.main+fp/hard/crtend.o
 .rodata.all_implied_fbits
                0x00000000       0x24 c:/siliconlabs/simplicitystudio/v5/developer/toolchains/gnu_arm/12.2.rel1_2023.7/bin/../lib/gcc/arm-none-eabi/12.2.1/thumb/v8-m.main+fp/hard/crtend.o
 .eh_frame      0x00000000        0x4 c:/siliconlabs/simplicitystudio/v5/developer/toolchains/gnu_arm/12.2.rel1_2023.7/bin/../lib/gcc/arm-none-eabi/12.2.1/thumb/v8-m.main+fp/hard/crtend.o
 .text          0x00000000        0x0 c:/siliconlabs/simplicitystudio/v5/developer/toolchains/gnu_arm/12.2.rel1_2023.7/bin/../lib/gcc/arm-none-eabi/12.2.1/thumb/v8-m.main+fp/hard/crtn.o
 .data          0x00000000        0x0 c:/siliconlabs/simplicitystudio/v5/developer/toolchains/gnu_arm/12.2.rel1_2023.7/bin/../lib/gcc/arm-none-eabi/12.2.1/thumb/v8-m.main+fp/hard/crtn.o
 .bss           0x00000000        0x0 c:/siliconlabs/simplicitystudio/v5/developer/toolchains/gnu_arm/12.2.rel1_2023.7/bin/../lib/gcc/arm-none-eabi/12.2.1/thumb/v8-m.main+fp/hard/crtn.o

Memory Configuration

Name             Origin             Length             Attributes
FLASH            0x08000000         0x0017e000         xr
RAM              0x20000000         0x00040000         xrw
*default*        0x00000000         0xffffffff

Linker script and memory map

LOAD c:/siliconlabs/simplicitystudio/v5/developer/toolchains/gnu_arm/12.2.rel1_2023.7/bin/../lib/gcc/arm-none-eabi/12.2.1/thumb/v8-m.main+fp/hard/crti.o
LOAD c:/siliconlabs/simplicitystudio/v5/developer/toolchains/gnu_arm/12.2.rel1_2023.7/bin/../lib/gcc/arm-none-eabi/12.2.1/thumb/v8-m.main+fp/hard/crtbegin.o
LOAD c:/siliconlabs/simplicitystudio/v5/developer/toolchains/gnu_arm/12.2.rel1_2023.7/bin/../lib/gcc/arm-none-eabi/12.2.1/thumb/v8-m.main+fp/hard/crt0.o
START GROUP
LOAD ./app.o
LOAD ./iadc.o
LOAD ./main.o
LOAD ./thermometer.o
LOAD ./autogen/sl_board_default_init.o
LOAD ./autogen/sl_device_init_clocks.o
LOAD ./autogen/sl_event_handler.o
LOAD ./autogen/sl_i2cspm_init.o
LOAD ./autogen/sl_iostream_handles.o
LOAD ./autogen/sl_power_manager_handler.o
LOAD ./gecko_sdk_4.4.3/app/bluetooth/common/sensor_rht/sl_sensor_rht.o
LOAD ./gecko_sdk_4.4.3/app/bluetooth/common/sensor_select/sl_sensor_select.o
LOAD ./gecko_sdk_4.4.3/app/common/util/app_log/app_log.o
LOAD ./gecko_sdk_4.4.3/app/common/util/app_timer/app_timer.o
LOAD ./gecko_sdk_4.4.3/hardware/board/src/sl_board_control_gpio.o
LOAD ./gecko_sdk_4.4.3/hardware/board/src/sl_board_init.o
LOAD ./gecko_sdk_4.4.3/hardware/driver/mx25_flash_shutdown/src/sl_mx25_flash_shutdown_usart/sl_mx25_flash_shutdown.o
LOAD ./gecko_sdk_4.4.3/hardware/driver/si70xx/src/sl_si70xx.o
LOAD ./gecko_sdk_4.4.3/platform/Device/SiliconLabs/EFR32MG24/Source/startup_efr32mg24.o
LOAD ./gecko_sdk_4.4.3/platform/Device/SiliconLabs/EFR32MG24/Source/system_efr32mg24.o
LOAD ./gecko_sdk_4.4.3/platform/common/src/sl_assert.o
LOAD ./gecko_sdk_4.4.3/platform/common/src/sl_slist.o
LOAD ./gecko_sdk_4.4.3/platform/common/src/sl_stdio.o
LOAD ./gecko_sdk_4.4.3/platform/common/src/sl_syscalls.o
LOAD ./gecko_sdk_4.4.3/platform/common/toolchain/src/sl_memory.o
LOAD ./gecko_sdk_4.4.3/platform/driver/debug/src/sl_debug_swo.o
LOAD ./gecko_sdk_4.4.3/platform/driver/i2cspm/src/sl_i2cspm.o
LOAD ./gecko_sdk_4.4.3/platform/emlib/src/em_burtc.o
LOAD ./gecko_sdk_4.4.3/platform/emlib/src/em_cmu.o
LOAD ./gecko_sdk_4.4.3/platform/emlib/src/em_core.o
LOAD ./gecko_sdk_4.4.3/platform/emlib/src/em_emu.o
LOAD ./gecko_sdk_4.4.3/platform/emlib/src/em_gpio.o
LOAD ./gecko_sdk_4.4.3/platform/emlib/src/em_i2c.o
LOAD ./gecko_sdk_4.4.3/platform/emlib/src/em_iadc.o
LOAD ./gecko_sdk_4.4.3/platform/emlib/src/em_ldma.o
LOAD ./gecko_sdk_4.4.3/platform/emlib/src/em_msc.o
LOAD ./gecko_sdk_4.4.3/platform/emlib/src/em_prs.o
LOAD ./gecko_sdk_4.4.3/platform/emlib/src/em_system.o
LOAD ./gecko_sdk_4.4.3/platform/emlib/src/em_timer.o
LOAD ./gecko_sdk_4.4.3/platform/emlib/src/em_usart.o
LOAD ./gecko_sdk_4.4.3/platform/peripheral/src/peripheral_sysrtc.o
LOAD ./gecko_sdk_4.4.3/platform/service/device_init/src/sl_device_init_dcdc_s2.o
LOAD ./gecko_sdk_4.4.3/platform/service/device_init/src/sl_device_init_emu_s2.o
LOAD ./gecko_sdk_4.4.3/platform/service/device_init/src/sl_device_init_hfxo_s2.o
LOAD ./gecko_sdk_4.4.3/platform/service/device_init/src/sl_device_init_lfxo_s2.o
LOAD ./gecko_sdk_4.4.3/platform/service/device_init/src/sl_device_init_nvic.o
LOAD ./gecko_sdk_4.4.3/platform/service/hfxo_manager/src/sl_hfxo_manager.o
LOAD ./gecko_sdk_4.4.3/platform/service/hfxo_manager/src/sl_hfxo_manager_hal_s2.o
LOAD ./gecko_sdk_4.4.3/platform/service/iostream/src/sl_iostream.o
LOAD ./gecko_sdk_4.4.3/platform/service/iostream/src/sl_iostream_debug.o
LOAD ./gecko_sdk_4.4.3/platform/service/iostream/src/sl_iostream_retarget_stdio.o
LOAD ./gecko_sdk_4.4.3/platform/service/iostream/src/sl_iostream_stdlib_config.o
LOAD ./gecko_sdk_4.4.3/platform/service/iostream/src/sl_iostream_swo_itm_8.o
LOAD ./gecko_sdk_4.4.3/platform/service/power_manager/src/sl_power_manager.o
LOAD ./gecko_sdk_4.4.3/platform/service/power_manager/src/sl_power_manager_debug.o
LOAD ./gecko_sdk_4.4.3/platform/service/power_manager/src/sl_power_manager_hal_s2.o
LOAD ./gecko_sdk_4.4.3/platform/service/sleeptimer/src/sl_sleeptimer.o
LOAD ./gecko_sdk_4.4.3/platform/service/sleeptimer/src/sl_sleeptimer_hal_burtc.o
LOAD ./gecko_sdk_4.4.3/platform/service/sleeptimer/src/sl_sleeptimer_hal_sysrtc.o
LOAD ./gecko_sdk_4.4.3/platform/service/sleeptimer/src/sl_sleeptimer_hal_timer.o
LOAD ./gecko_sdk_4.4.3/platform/service/system/src/sl_system_init.o
LOAD ./gecko_sdk_4.4.3/platform/service/system/src/sl_system_process_action.o
LOAD ./gecko_sdk_4.4.3/platform/service/udelay/src/sl_udelay.o
LOAD ./gecko_sdk_4.4.3/platform/service/udelay/src/sl_udelay_armv6m_gcc.o
LOAD c:/siliconlabs/simplicitystudio/v5/developer/toolchains/gnu_arm/12.2.rel1_2023.7/bin/../lib/gcc/arm-none-eabi/12.2.1/thumb/v8-m.main+fp/hard\libgcc.a
LOAD c:/siliconlabs/simplicitystudio/v5/developer/toolchains/gnu_arm/12.2.rel1_2023.7/bin/../lib/gcc/arm-none-eabi/12.2.1/thumb/v8-m.main+fp/hard\libc_nano.a
LOAD c:/siliconlabs/simplicitystudio/v5/developer/toolchains/gnu_arm/12.2.rel1_2023.7/bin/../lib/gcc/arm-none-eabi/12.2.1/thumb/v8-m.main+fp/hard\libm.a
LOAD c:/siliconlabs/simplicitystudio/v5/developer/toolchains/gnu_arm/12.2.rel1_2023.7/bin/../lib/gcc/arm-none-eabi/12.2.1/thumb/v8-m.main+fp/hard\libnosys.a
END GROUP
START GROUP
LOAD c:/siliconlabs/simplicitystudio/v5/developer/toolchains/gnu_arm/12.2.rel1_2023.7/bin/../lib/gcc/arm-none-eabi/12.2.1/thumb/v8-m.main+fp/hard\libgcc.a
LOAD c:/siliconlabs/simplicitystudio/v5/developer/toolchains/gnu_arm/12.2.rel1_2023.7/bin/../lib/gcc/arm-none-eabi/12.2.1/thumb/v8-m.main+fp/hard\libc_nano.a
LOAD c:/siliconlabs/simplicitystudio/v5/developer/toolchains/gnu_arm/12.2.rel1_2023.7/bin/../lib/gcc/arm-none-eabi/12.2.1/thumb/v8-m.main+fp/hard\libnosys.a
END GROUP
START GROUP
LOAD c:/siliconlabs/simplicitystudio/v5/developer/toolchains/gnu_arm/12.2.rel1_2023.7/bin/../lib/gcc/arm-none-eabi/12.2.1/thumb/v8-m.main+fp/hard\libgcc.a
LOAD c:/siliconlabs/simplicitystudio/v5/developer/toolchains/gnu_arm/12.2.rel1_2023.7/bin/../lib/gcc/arm-none-eabi/12.2.1/thumb/v8-m.main+fp/hard\libg_nano.a
LOAD c:/siliconlabs/simplicitystudio/v5/developer/toolchains/gnu_arm/12.2.rel1_2023.7/bin/../lib/gcc/arm-none-eabi/12.2.1/thumb/v8-m.main+fp/hard\libc_nano.a
END GROUP
START GROUP
LOAD c:/siliconlabs/simplicitystudio/v5/developer/toolchains/gnu_arm/12.2.rel1_2023.7/bin/../lib/gcc/arm-none-eabi/12.2.1/thumb/v8-m.main+fp/hard\libgcc.a
LOAD c:/siliconlabs/simplicitystudio/v5/developer/toolchains/gnu_arm/12.2.rel1_2023.7/bin/../lib/gcc/arm-none-eabi/12.2.1/thumb/v8-m.main+fp/hard\libc_nano.a
END GROUP
LOAD c:/siliconlabs/simplicitystudio/v5/developer/toolchains/gnu_arm/12.2.rel1_2023.7/bin/../lib/gcc/arm-none-eabi/12.2.1/thumb/v8-m.main+fp/hard/crtend.o
LOAD c:/siliconlabs/simplicitystudio/v5/developer/toolchains/gnu_arm/12.2.rel1_2023.7/bin/../lib/gcc/arm-none-eabi/12.2.1/thumb/v8-m.main+fp/hard/crtn.o

.text           0x08000000     0xb6e0
                0x08000000                linker_vectors_begin = .
 *(.vectors)
 .vectors       0x08000000      0x170 ./gecko_sdk_4.4.3/platform/Device/SiliconLabs/EFR32MG24/Source/startup_efr32mg24.o
                0x08000000                __Vectors
                0x08000170                linker_vectors_end = .
                0x08000170                __Vectors_End = .
                0x08000170                __Vectors_Size = (__Vectors_End - __Vectors)
                0x08000170                linker_code_begin = .
 *(SORT_BY_ALIGNMENT(.text*))
 .text          0x08000170        0x8 ./gecko_sdk_4.4.3/platform/service/udelay/src/sl_udelay_armv6m_gcc.o
                0x08000170                sli_delay_loop
 .text.deregister_tm_clones
                0x08000178       0x1c c:/siliconlabs/simplicitystudio/v5/developer/toolchains/gnu_arm/12.2.rel1_2023.7/bin/../lib/gcc/arm-none-eabi/12.2.1/thumb/v8-m.main+fp/hard/crtbegin.o
 .text.register_tm_clones
                0x08000194       0x28 c:/siliconlabs/simplicitystudio/v5/developer/toolchains/gnu_arm/12.2.rel1_2023.7/bin/../lib/gcc/arm-none-eabi/12.2.1/thumb/v8-m.main+fp/hard/crtbegin.o
 .text.__do_global_dtors_aux
                0x080001bc       0x28 c:/siliconlabs/simplicitystudio/v5/developer/toolchains/gnu_arm/12.2.rel1_2023.7/bin/../lib/gcc/arm-none-eabi/12.2.1/thumb/v8-m.main+fp/hard/crtbegin.o
 .text.frame_dummy
                0x080001e4       0x24 c:/siliconlabs/simplicitystudio/v5/developer/toolchains/gnu_arm/12.2.rel1_2023.7/bin/../lib/gcc/arm-none-eabi/12.2.1/thumb/v8-m.main+fp/hard/crtbegin.o
 .text          0x08000208       0x7c c:/siliconlabs/simplicitystudio/v5/developer/toolchains/gnu_arm/12.2.rel1_2023.7/bin/../lib/gcc/arm-none-eabi/12.2.1/thumb/v8-m.main+fp/hard/crt0.o
                0x08000208                _stack_init
                0x08000210                _start
                0x08000210                _mainCRTStartup
 .text.GPIO_PinInGet
                0x08000284       0x84 ./app.o
 .text.app_init
                0x08000308       0x38 ./app.o
                0x08000308                app_init
 .text.app_process_action
                0x08000340       0x58 ./app.o
                0x08000340                app_process_action
 .text.__NVIC_EnableIRQ
                0x08000398       0x34 ./iadc.o
 .text.__NVIC_ClearPendingIRQ
                0x080003cc       0x38 ./iadc.o
 .text.analog_input_initialize
                0x08000404      0x248 ./iadc.o
                0x08000404                analog_input_initialize
 .text.IADC_IRQHandler
                0x0800064c       0x74 ./iadc.o
                0x0800064c                IADC_IRQHandler
 .text.get_value_ADC
                0x080006c0       0x88 ./iadc.o
                0x080006c0                get_value_ADC
 .text.getData  0x08000748       0x50 ./thermometer.o
                0x08000748                getData
 .text.sl_device_init_clocks
                0x08000798       0xd4 ./autogen/sl_device_init_clocks.o
                0x08000798                sl_device_init_clocks
 .text.sl_i2cspm_init_instances
                0x0800086c       0x18 ./autogen/sl_i2cspm_init.o
                0x0800086c                sl_i2cspm_init_instances
 .text.sl_sensor_rht_init
                0x08000884       0xb8 ./gecko_sdk_4.4.3/app/bluetooth/common/sensor_rht/sl_sensor_rht.o
                0x08000884                sl_sensor_rht_init
 .text.sl_sensor_rht_get
                0x0800093c       0x3c ./gecko_sdk_4.4.3/app/bluetooth/common/sensor_rht/sl_sensor_rht.o
                0x0800093c                sl_sensor_rht_get
 .text.sl_sensor_select
                0x08000978       0x6c ./gecko_sdk_4.4.3/app/bluetooth/common/sensor_select/sl_sensor_select.o
                0x08000978                sl_sensor_select
 .text.app_log_init
                0x080009e4       0x3c ./gecko_sdk_4.4.3/app/common/util/app_log/app_log.o
                0x080009e4                app_log_init
 .text.sli_app_timer_step
                0x08000a20       0x38 ./gecko_sdk_4.4.3/app/common/util/app_timer/app_timer.o
                0x08000a20                sli_app_timer_step
 .text.sli_app_timer_sleep_on_isr_exit
                0x08000a58       0x24 ./gecko_sdk_4.4.3/app/common/util/app_timer/app_timer.o
                0x08000a58                sli_app_timer_sleep_on_isr_exit
 .text.sli_app_timer_is_ok_to_sleep
                0x08000a7c       0x24 ./gecko_sdk_4.4.3/app/common/util/app_timer/app_timer.o
                0x08000a7c                sli_app_timer_is_ok_to_sleep
 .text.remove_app_timer
                0x08000aa0       0x70 ./gecko_sdk_4.4.3/app/common/util/app_timer/app_timer.o
 .text.get_triggered_app_timer
                0x08000b10       0x74 ./gecko_sdk_4.4.3/app/common/util/app_timer/app_timer.o
 .text.sl_board_enable_sensor
                0x08000b84      0x140 ./gecko_sdk_4.4.3/hardware/board/src/sl_board_control_gpio.o
                0x08000b84                sl_board_enable_sensor
 .text.GPIO_PinOutClear
                0x08000cc4       0x84 ./gecko_sdk_4.4.3/hardware/driver/mx25_flash_shutdown/src/sl_mx25_flash_shutdown_usart/sl_mx25_flash_shutdown.o
 .text.GPIO_PinOutSet
                0x08000d48       0x84 ./gecko_sdk_4.4.3/hardware/driver/mx25_flash_shutdown/src/sl_mx25_flash_shutdown_usart/sl_mx25_flash_shutdown.o
 .text.sl_mx25_flash_shutdown
                0x08000dcc      0x134 ./gecko_sdk_4.4.3/hardware/driver/mx25_flash_shutdown/src/sl_mx25_flash_shutdown_usart/sl_mx25_flash_shutdown.o
                0x08000dcc                sl_mx25_flash_shutdown
 .text.CopyRamFuncs
                0x08000f00       0x2c ./gecko_sdk_4.4.3/platform/Device/SiliconLabs/EFR32MG24/Source/startup_efr32mg24.o
                0x08000f00                CopyRamFuncs
 .text.Reset_Handler
                0x08000f2c       0x9c ./gecko_sdk_4.4.3/platform/Device/SiliconLabs/EFR32MG24/Source/startup_efr32mg24.o
                0x08000f2c                Reset_Handler
 .text.__NVIC_EnableIRQ
                0x08000fc8       0x34 ./gecko_sdk_4.4.3/platform/Device/SiliconLabs/EFR32MG24/Source/system_efr32mg24.o
 .text.__NVIC_ClearPendingIRQ
                0x08000ffc       0x38 ./gecko_sdk_4.4.3/platform/Device/SiliconLabs/EFR32MG24/Source/system_efr32mg24.o
 .text.SystemInit
                0x08001034       0x90 ./gecko_sdk_4.4.3/platform/Device/SiliconLabs/EFR32MG24/Source/system_efr32mg24.o
                0x08001034                SystemInit
 .text.SystemHFRCODPLLClockGet
                0x080010c4        0xc ./gecko_sdk_4.4.3/platform/Device/SiliconLabs/EFR32MG24/Source/system_efr32mg24.o
                0x080010c4                SystemHFRCODPLLClockGet
 .text.SystemSYSCLKGet
                0x080010d0       0x50 ./gecko_sdk_4.4.3/platform/Device/SiliconLabs/EFR32MG24/Source/system_efr32mg24.o
                0x080010d0                SystemSYSCLKGet
 .text.SystemHCLKGet
                0x08001120       0x3c ./gecko_sdk_4.4.3/platform/Device/SiliconLabs/EFR32MG24/Source/system_efr32mg24.o
                0x08001120                SystemHCLKGet
 .text.SystemMaxCoreClockGet
                0x0800115c        0xc ./gecko_sdk_4.4.3/platform/Device/SiliconLabs/EFR32MG24/Source/system_efr32mg24.o
                0x0800115c                SystemMaxCoreClockGet
 .text.SystemHFXOClockGet
                0x08001168        0xc ./gecko_sdk_4.4.3/platform/Device/SiliconLabs/EFR32MG24/Source/system_efr32mg24.o
                0x08001168                SystemHFXOClockGet
 .text.SystemHFXOClockSet
                0x08001174       0x2c ./gecko_sdk_4.4.3/platform/Device/SiliconLabs/EFR32MG24/Source/system_efr32mg24.o
                0x08001174                SystemHFXOClockSet
 .text.SystemFSRCOClockGet
                0x080011a0        0xc ./gecko_sdk_4.4.3/platform/Device/SiliconLabs/EFR32MG24/Source/system_efr32mg24.o
                0x080011a0                SystemFSRCOClockGet
 .text.SystemHFRCOEM23ClockGet
                0x080011ac       0xe0 ./gecko_sdk_4.4.3/platform/Device/SiliconLabs/EFR32MG24/Source/system_efr32mg24.o
                0x080011ac                SystemHFRCOEM23ClockGet
 .text.SystemLFXOClockGet
                0x0800128c        0xc ./gecko_sdk_4.4.3/platform/Device/SiliconLabs/EFR32MG24/Source/system_efr32mg24.o
                0x0800128c                SystemLFXOClockGet
 .text.sl_slist_push
                0x08001298       0x38 ./gecko_sdk_4.4.3/platform/common/src/sl_slist.o
                0x08001298                sl_slist_push
 .text._sbrk    0x080012d0       0x3c ./gecko_sdk_4.4.3/platform/common/toolchain/src/sl_memory.o
                0x080012d0                _sbrk
 .text.BUS_RegBitWrite
                0x0800130c       0x48 ./gecko_sdk_4.4.3/platform/driver/debug/src/sl_debug_swo.o
 .text.GPIO_DbgSWOEnable
                0x08001354       0x30 ./gecko_sdk_4.4.3/platform/driver/debug/src/sl_debug_swo.o
 .text.sl_debug_swo_init
                0x08001384      0x178 ./gecko_sdk_4.4.3/platform/driver/debug/src/sl_debug_swo.o
                0x08001384                sl_debug_swo_init
 .text.sl_debug_swo_write_u8
                0x080014fc       0x6c ./gecko_sdk_4.4.3/platform/driver/debug/src/sl_debug_swo.o
                0x080014fc                sl_debug_swo_write_u8
 .text.GPIO_PinOutClear
                0x08001568       0x84 ./gecko_sdk_4.4.3/platform/driver/i2cspm/src/sl_i2cspm.o
 .text.GPIO_PinOutSet
                0x080015ec       0x84 ./gecko_sdk_4.4.3/platform/driver/i2cspm/src/sl_i2cspm.o
 .text.I2CSPM_Init
                0x08001670      0x154 ./gecko_sdk_4.4.3/platform/driver/i2cspm/src/sl_i2cspm.o
                0x08001670                I2CSPM_Init
 .text.I2CSPM_Transfer
                0x080017c4       0x4c ./gecko_sdk_4.4.3/platform/driver/i2cspm/src/sl_i2cspm.o
                0x080017c4                I2CSPM_Transfer
 .text.BUS_RegBitWrite
                0x08001810       0x48 ./gecko_sdk_4.4.3/platform/emlib/src/em_cmu.o
 .text.EMU_VScaleWait
                0x08001858       0x1c ./gecko_sdk_4.4.3/platform/emlib/src/em_cmu.o
 .text.EMU_VScaleGet
                0x08001874       0x1c ./gecko_sdk_4.4.3/platform/emlib/src/em_cmu.o
 .text.SYSCFG_setSysTicExtClkEnCfgSysTic
                0x08001890       0x14 ./gecko_sdk_4.4.3/platform/emlib/src/em_cmu.o
 .text.SYSCFG_clearSysTicExtClkEnCfgSysTic
                0x080018a4       0x14 ./gecko_sdk_4.4.3/platform/emlib/src/em_cmu.o
 .text.MSC_LockGetLocked
                0x080018b8       0x1c ./gecko_sdk_4.4.3/platform/emlib/src/em_cmu.o
 .text.MSC_LockSetLocked
                0x080018d4       0x10 ./gecko_sdk_4.4.3/platform/emlib/src/em_cmu.o
 .text.MSC_LockSetUnlocked
                0x080018e4       0x10 ./gecko_sdk_4.4.3/platform/emlib/src/em_cmu.o
 .text.MSC_ReadCTRLGet
                0x080018f4        0xc ./gecko_sdk_4.4.3/platform/emlib/src/em_cmu.o
 .text.MSC_ReadCTRLSet
                0x08001900       0x14 ./gecko_sdk_4.4.3/platform/emlib/src/em_cmu.o
 .text.CMU_ClockDivGet
                0x08001914       0xec ./gecko_sdk_4.4.3/platform/emlib/src/em_cmu.o
                0x08001914                CMU_ClockDivGet
 .text.CMU_ClockDivSet
                0x08001a00      0x1b0 ./gecko_sdk_4.4.3/platform/emlib/src/em_cmu.o
                0x08001a00                CMU_ClockDivSet
 .text.CMU_ClockEnable
                0x08001bb0       0x74 ./gecko_sdk_4.4.3/platform/emlib/src/em_cmu.o
                0x08001bb0                CMU_ClockEnable
 .text.CMU_ClockFreqGet
                0x08001c24      0x6a8 ./gecko_sdk_4.4.3/platform/emlib/src/em_cmu.o
                0x08001c24                CMU_ClockFreqGet
 .text.CMU_ClockSelectGet
                0x080022cc      0x3e4 ./gecko_sdk_4.4.3/platform/emlib/src/em_cmu.o
                0x080022cc                CMU_ClockSelectGet
 .text.sli_em_cmu_HFXOSetForceEnable
                0x080026b0       0x28 ./gecko_sdk_4.4.3/platform/emlib/src/em_cmu.o
                0x080026b0                sli_em_cmu_HFXOSetForceEnable
 .text.CMU_ClockSelectSet
                0x080026d8      0xb7c ./gecko_sdk_4.4.3/platform/emlib/src/em_cmu.o
                0x080026d8                CMU_ClockSelectSet
 .text.CMU_HFXOInit
                0x08003254      0x310 ./gecko_sdk_4.4.3/platform/emlib/src/em_cmu.o
                0x08003254                CMU_HFXOInit
 .text.CMU_HFXOCTuneDeltaGet
                0x08003564       0x10 ./gecko_sdk_4.4.3/platform/emlib/src/em_cmu.o
                0x08003564                CMU_HFXOCTuneDeltaGet
 .text.CMU_LFXOInit
                0x08003574      0x120 ./gecko_sdk_4.4.3/platform/emlib/src/em_cmu.o
                0x08003574                CMU_LFXOInit
 .text.CMU_LFXOPrecisionSet
                0x08003694       0x1c ./gecko_sdk_4.4.3/platform/emlib/src/em_cmu.o
                0x08003694                CMU_LFXOPrecisionSet
 .text.CMU_HFXOPrecisionSet
                0x080036b0       0x1c ./gecko_sdk_4.4.3/platform/emlib/src/em_cmu.o
                0x080036b0                CMU_HFXOPrecisionSet
 .text.eusart0ClkGet
                0x080036cc       0xac ./gecko_sdk_4.4.3/platform/emlib/src/em_cmu.o
 .text.em01GrpcClkGet
                0x08003778       0xbc ./gecko_sdk_4.4.3/platform/emlib/src/em_cmu.o
 .text.vdac0ClkGet
                0x08003834       0xa8 ./gecko_sdk_4.4.3/platform/emlib/src/em_cmu.o
 .text.vdac1ClkGet
                0x080038dc       0xa8 ./gecko_sdk_4.4.3/platform/emlib/src/em_cmu.o
 .text.pcnt0ClkGet
                0x08003984       0x74 ./gecko_sdk_4.4.3/platform/emlib/src/em_cmu.o
 .text.rhclkPrescMax
                0x080039f8       0x18 ./gecko_sdk_4.4.3/platform/emlib/src/em_cmu.o
 .text.rhclkPrescOptimize
                0x08003a10       0x2c ./gecko_sdk_4.4.3/platform/emlib/src/em_cmu.o
 .text.traceClkGet
                0x08003a3c       0x84 ./gecko_sdk_4.4.3/platform/emlib/src/em_cmu.o
 .text.dpllRefClkGet
                0x08003ac0       0x94 ./gecko_sdk_4.4.3/platform/emlib/src/em_cmu.o
 .text.em01GrpaClkGet
                0x08003b54       0xc4 ./gecko_sdk_4.4.3/platform/emlib/src/em_cmu.o
 .text.em23GrpaClkGet
                0x08003c18       0x94 ./gecko_sdk_4.4.3/platform/emlib/src/em_cmu.o
 .text.em4GrpaClkGet
                0x08003cac       0x94 ./gecko_sdk_4.4.3/platform/emlib/src/em_cmu.o
 .text.getWaitStatesByFrequencyAndVScale
                0x08003d40       0x54 ./gecko_sdk_4.4.3/platform/emlib/src/em_cmu.o
 .text.flashWaitStateControl
                0x08003d94       0x70 ./gecko_sdk_4.4.3/platform/emlib/src/em_cmu.o
 .text.iadcClkGet
                0x08003e04       0x8c ./gecko_sdk_4.4.3/platform/emlib/src/em_cmu.o
 .text.pclkDivOptimize
                0x08003e90       0x34 ./gecko_sdk_4.4.3/platform/emlib/src/em_cmu.o
 .text.sysrtcClkGet
                0x08003ec4       0x94 ./gecko_sdk_4.4.3/platform/emlib/src/em_cmu.o
 .text.wdog0ClkGet
                0x08003f58       0xa8 ./gecko_sdk_4.4.3/platform/emlib/src/em_cmu.o
 .text.wdog1ClkGet
                0x08004000       0xa8 ./gecko_sdk_4.4.3/platform/emlib/src/em_cmu.o
 .text.sysTickClkGet
                0x080040a8       0x58 ./gecko_sdk_4.4.3/platform/emlib/src/em_cmu.o
 .text.EMU_DCDCLock
                0x08004100       0x14 ./gecko_sdk_4.4.3/platform/emlib/src/em_emu.o
 .text.EMU_DCDCUnlock
                0x08004114       0x10 ./gecko_sdk_4.4.3/platform/emlib/src/em_emu.o
 .text.EMU_DCDCSync
                0x08004124       0x20 ./gecko_sdk_4.4.3/platform/emlib/src/em_emu.o
 .text.EMU_VScaleWait
                0x08004144       0x1c ./gecko_sdk_4.4.3/platform/emlib/src/em_emu.o
 .text.EMU_VScaleGet
                0x08004160       0x1c ./gecko_sdk_4.4.3/platform/emlib/src/em_emu.o
 .text.GPIO_IntClear
                0x0800417c       0x1c ./gecko_sdk_4.4.3/platform/emlib/src/em_emu.o
 .text.EMU_EM01Init
                0x08004198       0x24 ./gecko_sdk_4.4.3/platform/emlib/src/em_emu.o
                0x08004198                EMU_EM01Init
 .text.EMU_EM23Init
                0x080041bc       0x24 ./gecko_sdk_4.4.3/platform/emlib/src/em_emu.o
                0x080041bc                EMU_EM23Init
 .text.EMU_EnterEM2
                0x080041e0       0x50 ./gecko_sdk_4.4.3/platform/emlib/src/em_emu.o
                0x080041e0                EMU_EnterEM2
 .text.EMU_EnterEM3
                0x08004230       0x48 ./gecko_sdk_4.4.3/platform/emlib/src/em_emu.o
                0x08004230                EMU_EnterEM3
 .text.EMU_EM4Init
                0x08004278       0x24 ./gecko_sdk_4.4.3/platform/emlib/src/em_emu.o
                0x08004278                EMU_EM4Init
 .text.EMU_VScaleEM01ByClock
                0x0800429c       0x5c ./gecko_sdk_4.4.3/platform/emlib/src/em_emu.o
                0x0800429c                EMU_VScaleEM01ByClock
 .text.EMU_VScaleEM01
                0x080042f8       0xdc ./gecko_sdk_4.4.3/platform/emlib/src/em_emu.o
                0x080042f8                EMU_VScaleEM01
 .text.EMU_DCDCModeSet
                0x080043d4      0x120 ./gecko_sdk_4.4.3/platform/emlib/src/em_emu.o
                0x080043d4                EMU_DCDCModeSet
 .text.EMU_DCDCInit
                0x080044f4       0xa8 ./gecko_sdk_4.4.3/platform/emlib/src/em_emu.o
                0x080044f4                EMU_DCDCInit
 .text.EMU_DCDCSetPFMXModePeakCurrent
                0x0800459c       0xb4 ./gecko_sdk_4.4.3/platform/emlib/src/em_emu.o
                0x0800459c                EMU_DCDCSetPFMXModePeakCurrent
 .text.GPIO_PinOutClear
                0x08004650       0x84 ./gecko_sdk_4.4.3/platform/emlib/src/em_gpio.o
 .text.GPIO_PinOutSet
                0x080046d4       0x84 ./gecko_sdk_4.4.3/platform/emlib/src/em_gpio.o
 .text.GPIO_PinModeSet
                0x08004758      0x120 ./gecko_sdk_4.4.3/platform/emlib/src/em_gpio.o
                0x08004758                GPIO_PinModeSet
 .text.BUS_RegBitWrite
                0x08004878       0x48 ./gecko_sdk_4.4.3/platform/emlib/src/em_i2c.o
 .text.I2C_BusFreqSet
                0x080048c0      0x1a8 ./gecko_sdk_4.4.3/platform/emlib/src/em_i2c.o
                0x080048c0                I2C_BusFreqSet
 .text.I2C_Enable
                0x08004a68       0x48 ./gecko_sdk_4.4.3/platform/emlib/src/em_i2c.o
                0x08004a68                I2C_Enable
 .text.I2C_Init
                0x08004ab0       0x7c ./gecko_sdk_4.4.3/platform/emlib/src/em_i2c.o
                0x08004ab0                I2C_Init
 .text.I2C_Transfer
                0x08004b2c      0x4cc ./gecko_sdk_4.4.3/platform/emlib/src/em_i2c.o
                0x08004b2c                I2C_Transfer
 .text.I2C_TransferInit
                0x08004ff8       0xf8 ./gecko_sdk_4.4.3/platform/emlib/src/em_i2c.o
                0x08004ff8                I2C_TransferInit
 .text.IADC_disable
                0x080050f0       0x38 ./gecko_sdk_4.4.3/platform/emlib/src/em_iadc.o
 .text.IADC_init
                0x08005128      0x984 ./gecko_sdk_4.4.3/platform/emlib/src/em_iadc.o
                0x08005128                IADC_init
 .text.IADC_initScan
                0x08005aac      0x17c ./gecko_sdk_4.4.3/platform/emlib/src/em_iadc.o
                0x08005aac                IADC_initScan
 .text.IADC_calcTimebase
                0x08005c28       0xa0 ./gecko_sdk_4.4.3/platform/emlib/src/em_iadc.o
                0x08005c28                IADC_calcTimebase
 .text.IADC_calcSrcClkPrescale
                0x08005cc8       0x8c ./gecko_sdk_4.4.3/platform/emlib/src/em_iadc.o
                0x08005cc8                IADC_calcSrcClkPrescale
 .text.IADC_calcAdcClkPrescale
                0x08005d54       0xe0 ./gecko_sdk_4.4.3/platform/emlib/src/em_iadc.o
                0x08005d54                IADC_calcAdcClkPrescale
 .text.IADC_getReferenceVoltage
                0x08005e34       0x7c ./gecko_sdk_4.4.3/platform/emlib/src/em_iadc.o
                0x08005e34                IADC_getReferenceVoltage
 .text.PRS_ConvertToSyncSource
                0x08005eb0      0x134 ./gecko_sdk_4.4.3/platform/emlib/src/em_prs.o
                0x08005eb0                PRS_ConvertToSyncSource
 .text.PRS_ConvertToSyncSignal
                0x08005fe4      0x1a4 ./gecko_sdk_4.4.3/platform/emlib/src/em_prs.o
                0x08005fe4                PRS_ConvertToSyncSignal
 .text.PRS_ConnectSignal
                0x08006188       0x9c ./gecko_sdk_4.4.3/platform/emlib/src/em_prs.o
                0x08006188                PRS_ConnectSignal
 .text.PRS_ConnectConsumer
                0x08006224       0x6c ./gecko_sdk_4.4.3/platform/emlib/src/em_prs.o
                0x08006224                PRS_ConnectConsumer
 .text.SYSCFG_readChipRev
                0x08006290        0xc ./gecko_sdk_4.4.3/platform/emlib/src/em_system.o
 .text.SYSTEM_ChipRevisionGet
                0x0800629c       0x50 ./gecko_sdk_4.4.3/platform/emlib/src/em_system.o
                0x0800629c                SYSTEM_ChipRevisionGet
 .text.prsRxInput
                0x080062ec       0x38 ./gecko_sdk_4.4.3/platform/emlib/src/em_usart.o
 .text.USART_BaudrateSyncSet
                0x08006324       0x68 ./gecko_sdk_4.4.3/platform/emlib/src/em_usart.o
                0x08006324                USART_BaudrateSyncSet
 .text.USART_InitSync
                0x0800638c      0x108 ./gecko_sdk_4.4.3/platform/emlib/src/em_usart.o
                0x0800638c                USART_InitSync
 .text.USART_Reset
                0x08006494       0xa0 ./gecko_sdk_4.4.3/platform/emlib/src/em_usart.o
                0x08006494                USART_Reset
 .text.sl_hal_sysrtc_wait_sync
                0x08006534       0x20 ./gecko_sdk_4.4.3/platform/peripheral/src/peripheral_sysrtc.o
                0x08006534                sl_hal_sysrtc_wait_sync
 .text.sl_hal_sysrtc_wait_ready
                0x08006554       0x2c ./gecko_sdk_4.4.3/platform/peripheral/src/peripheral_sysrtc.o
                0x08006554                sl_hal_sysrtc_wait_ready
 .text.sl_hal_sysrtc_stop
                0x08006580       0x14 ./gecko_sdk_4.4.3/platform/peripheral/src/peripheral_sysrtc.o
                0x08006580                sl_hal_sysrtc_stop
 .text.sl_hal_sysrtc_get_counter
                0x08006594       0x14 ./gecko_sdk_4.4.3/platform/peripheral/src/peripheral_sysrtc.o
                0x08006594                sl_hal_sysrtc_get_counter
 .text.sl_hal_sysrtc_set_counter
                0x080065a8       0x1c ./gecko_sdk_4.4.3/platform/peripheral/src/peripheral_sysrtc.o
                0x080065a8                sl_hal_sysrtc_set_counter
 .text.sl_hal_sysrtc_init
                0x080065c4       0x38 ./gecko_sdk_4.4.3/platform/peripheral/src/peripheral_sysrtc.o
                0x080065c4                sl_hal_sysrtc_init
 .text.sl_hal_sysrtc_enable
                0x080065fc       0x20 ./gecko_sdk_4.4.3/platform/peripheral/src/peripheral_sysrtc.o
                0x080065fc                sl_hal_sysrtc_enable
 .text.sl_hal_sysrtc_disable
                0x0800661c       0x24 ./gecko_sdk_4.4.3/platform/peripheral/src/peripheral_sysrtc.o
                0x0800661c                sl_hal_sysrtc_disable
 .text.sl_hal_sysrtc_init_group
                0x08006640       0xbc ./gecko_sdk_4.4.3/platform/peripheral/src/peripheral_sysrtc.o
                0x08006640                sl_hal_sysrtc_init_group
 .text.sl_hal_sysrtc_enable_group_interrupts
                0x080066fc       0x44 ./gecko_sdk_4.4.3/platform/peripheral/src/peripheral_sysrtc.o
                0x080066fc                sl_hal_sysrtc_enable_group_interrupts
 .text.sl_hal_sysrtc_disable_group_interrupts
                0x08006740       0x44 ./gecko_sdk_4.4.3/platform/peripheral/src/peripheral_sysrtc.o
                0x08006740                sl_hal_sysrtc_disable_group_interrupts
 .text.sl_hal_sysrtc_clear_group_interrupts
                0x08006784       0x44 ./gecko_sdk_4.4.3/platform/peripheral/src/peripheral_sysrtc.o
                0x08006784                sl_hal_sysrtc_clear_group_interrupts
 .text.sl_hal_sysrtc_get_group_interrupts
                0x080067c8       0x3c ./gecko_sdk_4.4.3/platform/peripheral/src/peripheral_sysrtc.o
                0x080067c8                sl_hal_sysrtc_get_group_interrupts
 .text.sl_hal_sysrtc_get_group_compare_channel_value
                0x08006804       0x5c ./gecko_sdk_4.4.3/platform/peripheral/src/peripheral_sysrtc.o
                0x08006804                sl_hal_sysrtc_get_group_compare_channel_value
 .text.sl_hal_sysrtc_set_group_compare_channel_value
                0x08006860       0x5c ./gecko_sdk_4.4.3/platform/peripheral/src/peripheral_sysrtc.o
                0x08006860                sl_hal_sysrtc_set_group_compare_channel_value
 .text.sl_hal_sysrtc_get_group_capture_channel_value
                0x080068bc       0x3c ./gecko_sdk_4.4.3/platform/peripheral/src/peripheral_sysrtc.o
                0x080068bc                sl_hal_sysrtc_get_group_capture_channel_value
 .text.sl_device_init_dcdc
                0x080068f8       0x34 ./gecko_sdk_4.4.3/platform/service/device_init/src/sl_device_init_dcdc_s2.o
                0x080068f8                sl_device_init_dcdc
 .text.sl_device_init_emu
                0x0800692c       0x34 ./gecko_sdk_4.4.3/platform/service/device_init/src/sl_device_init_emu_s2.o
                0x0800692c                sl_device_init_emu
 .text.sl_device_init_hfxo
                0x08006960       0xc8 ./gecko_sdk_4.4.3/platform/service/device_init/src/sl_device_init_hfxo_s2.o
                0x08006960                sl_device_init_hfxo
 .text.sl_device_init_lfxo
                0x08006a28       0x3c ./gecko_sdk_4.4.3/platform/service/device_init/src/sl_device_init_lfxo_s2.o
                0x08006a28                sl_device_init_lfxo
 .text.__NVIC_SetPriority
                0x08006a64       0x50 ./gecko_sdk_4.4.3/platform/service/device_init/src/sl_device_init_nvic.o
 .text.sl_hfxo_manager_init
                0x08006ab4       0x8c ./gecko_sdk_4.4.3/platform/service/hfxo_manager/src/sl_hfxo_manager.o
                0x08006ab4                sl_hfxo_manager_init
 .text.sli_hfxo_manager_begin_startup_measurement
                0x08006b40       0x20 ./gecko_sdk_4.4.3/platform/service/hfxo_manager/src/sl_hfxo_manager.o
                0x08006b40                sli_hfxo_manager_begin_startup_measurement
 .text.sli_hfxo_manager_retrieve_begining_startup_measurement
                0x08006b60       0x3c ./gecko_sdk_4.4.3/platform/service/hfxo_manager/src/sl_hfxo_manager.o
                0x08006b60                sli_hfxo_manager_retrieve_begining_startup_measurement
 .text.sli_hfxo_manager_end_startup_measurement
                0x08006b9c      0x11c ./gecko_sdk_4.4.3/platform/service/hfxo_manager/src/sl_hfxo_manager.o
                0x08006b9c                sli_hfxo_manager_end_startup_measurement
 .text.sli_hfxo_manager_get_startup_time
                0x08006cb8        0xc ./gecko_sdk_4.4.3/platform/service/hfxo_manager/src/sl_hfxo_manager.o
                0x08006cb8                sli_hfxo_manager_get_startup_time
 .text.__NVIC_EnableIRQ
                0x08006cc4       0x34 ./gecko_sdk_4.4.3/platform/service/hfxo_manager/src/sl_hfxo_manager_hal_s2.o
 .text.__NVIC_ClearPendingIRQ
                0x08006cf8       0x38 ./gecko_sdk_4.4.3/platform/service/hfxo_manager/src/sl_hfxo_manager_hal_s2.o
 .text.__NVIC_SetPriority
                0x08006d30       0x50 ./gecko_sdk_4.4.3/platform/service/hfxo_manager/src/sl_hfxo_manager_hal_s2.o
 .text.sli_hfxo_manager_init_hardware
                0x08006d80       0x94 ./gecko_sdk_4.4.3/platform/service/hfxo_manager/src/sl_hfxo_manager_hal_s2.o
                0x08006d80                sli_hfxo_manager_init_hardware
 .text.sli_hfxo_manager_is_hfxo_ready
                0x08006e14       0x68 ./gecko_sdk_4.4.3/platform/service/hfxo_manager/src/sl_hfxo_manager_hal_s2.o
                0x08006e14                sli_hfxo_manager_is_hfxo_ready
 .text.sl_hfxo_manager_irq_handler
                0x08006e7c       0x9c ./gecko_sdk_4.4.3/platform/service/hfxo_manager/src/sl_hfxo_manager_hal_s2.o
                0x08006e7c                sl_hfxo_manager_irq_handler
 .text.sl_iostream_set_default
                0x08006f18       0x28 ./gecko_sdk_4.4.3/platform/service/iostream/src/sl_iostream.o
                0x08006f18                sl_iostream_set_default
 .text.sl_iostream_get_default
                0x08006f40       0x28 ./gecko_sdk_4.4.3/platform/service/iostream/src/sl_iostream.o
                0x08006f40                sl_iostream_get_default
 .text.sl_iostream_debug_init
                0x08006f68       0x30 ./gecko_sdk_4.4.3/platform/service/iostream/src/sl_iostream_debug.o
                0x08006f68                sl_iostream_debug_init
 .text.debug_write
                0x08006f98       0x50 ./gecko_sdk_4.4.3/platform/service/iostream/src/sl_iostream_debug.o
 .text._write   0x08006fe8       0x44 ./gecko_sdk_4.4.3/platform/service/iostream/src/sl_iostream_retarget_stdio.o
                0x08006fe8                _write
 .text.sl_iostream_stdlib_disable_buffering
                0x0800702c       0x1c ./gecko_sdk_4.4.3/platform/service/iostream/src/sl_iostream_stdlib_config.o
                0x0800702c                sl_iostream_stdlib_disable_buffering
 .text.sli_iostream_swo_itm_8_init
                0x08007048       0x50 ./gecko_sdk_4.4.3/platform/service/iostream/src/sl_iostream_swo_itm_8.o
                0x08007048                sli_iostream_swo_itm_8_init
 .text.sli_iosteam_swo_itm_em_transition
                0x08007098       0x44 ./gecko_sdk_4.4.3/platform/service/iostream/src/sl_iostream_swo_itm_8.o
 .text.sl_power_manager_init
                0x080070dc       0x88 ./gecko_sdk_4.4.3/platform/service/power_manager/src/sl_power_manager.o
                0x080070dc                sl_power_manager_init
 .text.sl_power_manager_sleep
                0x08007164      0x204 ./gecko_sdk_4.4.3/platform/service/power_manager/src/sl_power_manager.o
                0x08007164                sl_power_manager_sleep
 .text.sli_power_manager_update_em_requirement
                0x08007368      0x108 ./gecko_sdk_4.4.3/platform/service/power_manager/src/sl_power_manager.o
                0x08007368                sli_power_manager_update_em_requirement
 .text.sli_power_manager_get_restore_delay
                0x08007470       0x48 ./gecko_sdk_4.4.3/platform/service/power_manager/src/sl_power_manager.o
                0x08007470                sli_power_manager_get_restore_delay
 .text.sl_power_manager_subscribe_em_transition_event
                0x080074b8       0x30 ./gecko_sdk_4.4.3/platform/service/power_manager/src/sl_power_manager.o
                0x080074b8                sl_power_manager_subscribe_em_transition_event
 .text.sl_power_manager_schedule_wakeup_get_restore_overhead_tick
                0x080074e8       0x14 ./gecko_sdk_4.4.3/platform/service/power_manager/src/sl_power_manager.o
                0x080074e8                sl_power_manager_schedule_wakeup_get_restore_overhead_tick
 .text.sli_power_manager_convert_delay_us_to_tick
                0x080074fc       0x2c ./gecko_sdk_4.4.3/platform/service/power_manager/src/sl_power_manager.o
                0x080074fc                sli_power_manager_convert_delay_us_to_tick
 .text.sl_power_manager_is_latest_wakeup_internal
                0x08007528       0x4c ./gecko_sdk_4.4.3/platform/service/power_manager/src/sl_power_manager.o
                0x08007528                sl_power_manager_is_latest_wakeup_internal
 .text.get_lowest_em
                0x08007574       0x34 ./gecko_sdk_4.4.3/platform/service/power_manager/src/sl_power_manager.o
 .text.power_manager_notify_em_transition
                0x080075a8       0xec ./gecko_sdk_4.4.3/platform/service/power_manager/src/sl_power_manager.o
 .text.evaluate_wakeup
                0x08007694      0x118 ./gecko_sdk_4.4.3/platform/service/power_manager/src/sl_power_manager.o
 .text.update_em1_requirement
                0x080077ac       0x94 ./gecko_sdk_4.4.3/platform/service/power_manager/src/sl_power_manager.o
 .text.clock_restore_and_wait
                0x08007840       0x88 ./gecko_sdk_4.4.3/platform/service/power_manager/src/sl_power_manager.o
 .text.clock_restore
                0x080078c8       0x6c ./gecko_sdk_4.4.3/platform/service/power_manager/src/sl_power_manager.o
 .text.on_clock_wakeup_timeout
                0x08007934       0x34 ./gecko_sdk_4.4.3/platform/service/power_manager/src/sl_power_manager.o
 .text.sli_hfxo_manager_notify_ready_for_power_manager
                0x08007968       0x48 ./gecko_sdk_4.4.3/platform/service/power_manager/src/sl_power_manager.o
                0x08007968                sli_hfxo_manager_notify_ready_for_power_manager
 .text.sli_hfxo_notify_ready_for_power_manager_from_prs
                0x080079b0       0x1c ./gecko_sdk_4.4.3/platform/service/power_manager/src/sl_power_manager.o
                0x080079b0                sli_hfxo_notify_ready_for_power_manager_from_prs
 .text.EMU_EnterEM1
                0x080079cc       0x18 ./gecko_sdk_4.4.3/platform/service/power_manager/src/sl_power_manager_hal_s2.o
 .text.sli_power_manager_init_hardware
                0x080079e4      0x248 ./gecko_sdk_4.4.3/platform/service/power_manager/src/sl_power_manager_hal_s2.o
                0x080079e4                sli_power_manager_init_hardware
 .text.sli_power_manager_em23_voltage_scaling_enable_fast_wakeup
                0x08007c2c       0x88 ./gecko_sdk_4.4.3/platform/service/power_manager/src/sl_power_manager_hal_s2.o
                0x08007c2c                sli_power_manager_em23_voltage_scaling_enable_fast_wakeup
 .text.sli_power_manager_save_states
                0x08007cb4       0x34 ./gecko_sdk_4.4.3/platform/service/power_manager/src/sl_power_manager_hal_s2.o
                0x08007cb4                sli_power_manager_save_states
 .text.EMU_EM23PresleepHook
                0x08007ce8       0x94 ./gecko_sdk_4.4.3/platform/service/power_manager/src/sl_power_manager_hal_s2.o
                0x08007ce8                EMU_EM23PresleepHook
 .text.EMU_EM23PostsleepHook
                0x08007d7c       0x8c ./gecko_sdk_4.4.3/platform/service/power_manager/src/sl_power_manager_hal_s2.o
                0x08007d7c                EMU_EM23PostsleepHook
 .text.sli_power_manager_handle_pre_deepsleep_operations
                0x08007e08       0x10 ./gecko_sdk_4.4.3/platform/service/power_manager/src/sl_power_manager_hal_s2.o
                0x08007e08                sli_power_manager_handle_pre_deepsleep_operations
 .text.sli_power_manager_restore_high_freq_accuracy_clk
                0x08007e18       0x80 ./gecko_sdk_4.4.3/platform/service/power_manager/src/sl_power_manager_hal_s2.o
                0x08007e18                sli_power_manager_restore_high_freq_accuracy_clk
 .text.sli_power_manager_is_high_freq_accuracy_clk_ready
                0x08007e98       0x34 ./gecko_sdk_4.4.3/platform/service/power_manager/src/sl_power_manager_hal_s2.o
                0x08007e98                sli_power_manager_is_high_freq_accuracy_clk_ready
 .text.sli_power_manager_restore_states
                0x08007ecc       0xa4 ./gecko_sdk_4.4.3/platform/service/power_manager/src/sl_power_manager_hal_s2.o
                0x08007ecc                sli_power_manager_restore_states
 .text.sli_power_manager_apply_em
                0x08007f70       0x50 ./gecko_sdk_4.4.3/platform/service/power_manager/src/sl_power_manager_hal_s2.o
                0x08007f70                sli_power_manager_apply_em
 .text.sli_power_manager_get_wakeup_process_time_overhead
                0x08007fc0       0x3c ./gecko_sdk_4.4.3/platform/service/power_manager/src/sl_power_manager_hal_s2.o
                0x08007fc0                sli_power_manager_get_wakeup_process_time_overhead
 .text.sli_power_manager_is_high_freq_accuracy_clk_used
                0x08007ffc        0xc ./gecko_sdk_4.4.3/platform/service/power_manager/src/sl_power_manager_hal_s2.o
                0x08007ffc                sli_power_manager_is_high_freq_accuracy_clk_used
 .text.sl_sleeptimer_init
                0x08008008       0xa0 ./gecko_sdk_4.4.3/platform/service/sleeptimer/src/sl_sleeptimer.o
                0x08008008                sl_sleeptimer_init
 .text.sl_sleeptimer_stop_timer
                0x080080a8       0x8c ./gecko_sdk_4.4.3/platform/service/sleeptimer/src/sl_sleeptimer.o
                0x080080a8                sl_sleeptimer_stop_timer
 .text.sl_sleeptimer_is_timer_running
                0x08008134       0x6c ./gecko_sdk_4.4.3/platform/service/sleeptimer/src/sl_sleeptimer.o
                0x08008134                sl_sleeptimer_is_timer_running
 .text.sl_sleeptimer_get_remaining_time_of_first_timer
                0x080081a0       0x9c ./gecko_sdk_4.4.3/platform/service/sleeptimer/src/sl_sleeptimer.o
                0x080081a0                sl_sleeptimer_get_remaining_time_of_first_timer
 .text.sli_sleeptimer_is_power_manager_timer_next_to_expire
                0x0800823c       0x40 ./gecko_sdk_4.4.3/platform/service/sleeptimer/src/sl_sleeptimer.o
                0x0800823c                sli_sleeptimer_is_power_manager_timer_next_to_expire
 .text.sl_sleeptimer_get_timer_frequency
                0x0800827c        0xc ./gecko_sdk_4.4.3/platform/service/sleeptimer/src/sl_sleeptimer.o
                0x0800827c                sl_sleeptimer_get_timer_frequency
 .text.sl_sleeptimer_delay_millisecond
                0x08008288       0x54 ./gecko_sdk_4.4.3/platform/service/sleeptimer/src/sl_sleeptimer.o
                0x08008288                sl_sleeptimer_delay_millisecond
 .text.sl_sleeptimer_ms_to_tick
                0x080082dc       0x60 ./gecko_sdk_4.4.3/platform/service/sleeptimer/src/sl_sleeptimer.o
                0x080082dc                sl_sleeptimer_ms_to_tick
 .text.process_timer_irq
                0x0800833c      0x25c ./gecko_sdk_4.4.3/platform/service/sleeptimer/src/sl_sleeptimer.o
                0x0800833c                process_timer_irq
 .text.delta_list_insert_timer
                0x08008598       0xd4 ./gecko_sdk_4.4.3/platform/service/sleeptimer/src/sl_sleeptimer.o
 .text.delta_list_remove_timer
                0x0800866c       0x74 ./gecko_sdk_4.4.3/platform/service/sleeptimer/src/sl_sleeptimer.o
 .text.set_comparator_for_next_timer
                0x080086e0       0x4c ./gecko_sdk_4.4.3/platform/service/sleeptimer/src/sl_sleeptimer.o
 .text.update_delta_list
                0x0800872c       0x70 ./gecko_sdk_4.4.3/platform/service/sleeptimer/src/sl_sleeptimer.o
 .text.create_timer
                0x0800879c       0xe4 ./gecko_sdk_4.4.3/platform/service/sleeptimer/src/sl_sleeptimer.o
 .text.update_next_timer_to_expire_is_power_manager
                0x08008880       0x58 ./gecko_sdk_4.4.3/platform/service/sleeptimer/src/sl_sleeptimer.o
 .text.sl_sleeptimer_is_power_manager_early_restore_timer_latest_to_expire
                0x080088d8       0x28 ./gecko_sdk_4.4.3/platform/service/sleeptimer/src/sl_sleeptimer.o
                0x080088d8                sl_sleeptimer_is_power_manager_early_restore_timer_latest_to_expire
 .text.sli_sleeptimer_update_sleep_on_isr_exit
                0x08008900       0x1c ./gecko_sdk_4.4.3/platform/service/sleeptimer/src/sl_sleeptimer.o
                0x08008900                sli_sleeptimer_update_sleep_on_isr_exit
 .text.__NVIC_EnableIRQ
                0x0800891c       0x34 ./gecko_sdk_4.4.3/platform/service/sleeptimer/src/sl_sleeptimer_hal_sysrtc.o
 .text.__NVIC_ClearPendingIRQ
                0x08008950       0x38 ./gecko_sdk_4.4.3/platform/service/sleeptimer/src/sl_sleeptimer_hal_sysrtc.o
 .text.sli_sleeptimer_hal_power_manager_integration_init
                0x08008988       0x38 ./gecko_sdk_4.4.3/platform/service/sleeptimer/src/sl_sleeptimer_hal_sysrtc.o
                0x08008988                sli_sleeptimer_hal_power_manager_integration_init
 .text.sli_sleeptimer_hal_hfxo_manager_integration_init
                0x080089c0       0x34 ./gecko_sdk_4.4.3/platform/service/sleeptimer/src/sl_sleeptimer_hal_sysrtc.o
                0x080089c0                sli_sleeptimer_hal_hfxo_manager_integration_init
 .text.sleeptimer_hal_set_compare
                0x080089f4       0xac ./gecko_sdk_4.4.3/platform/service/sleeptimer/src/sl_sleeptimer_hal_sysrtc.o
                0x080089f4                sleeptimer_hal_set_compare
 .text.sleeptimer_hal_set_compare_prs_hfxo_startup
                0x08008aa0       0x8c ./gecko_sdk_4.4.3/platform/service/sleeptimer/src/sl_sleeptimer_hal_sysrtc.o
                0x08008aa0                sleeptimer_hal_set_compare_prs_hfxo_startup
 .text.sleeptimer_hal_disable_int
                0x08008b2c       0x60 ./gecko_sdk_4.4.3/platform/service/sleeptimer/src/sl_sleeptimer_hal_sysrtc.o
                0x08008b2c                sleeptimer_hal_disable_int
 .text.sleeptimer_hal_set_int
                0x08008b8c       0x2c ./gecko_sdk_4.4.3/platform/service/sleeptimer/src/sl_sleeptimer_hal_sysrtc.o
                0x08008b8c                sleeptimer_hal_set_int
 .text.sleeptimer_hal_disable_prs_compare_and_capture_channel
                0x08008bb8       0x38 ./gecko_sdk_4.4.3/platform/service/sleeptimer/src/sl_sleeptimer_hal_sysrtc.o
                0x08008bb8                sleeptimer_hal_disable_prs_compare_and_capture_channel
 .text.sli_sleeptimer_set_pm_em_requirement
                0x08008bf0       0x24 ./gecko_sdk_4.4.3/platform/service/sleeptimer/src/sl_sleeptimer_hal_sysrtc.o
                0x08008bf0                sli_sleeptimer_set_pm_em_requirement
 .text.sl_udelay_wait
                0x08008c14       0x80 ./gecko_sdk_4.4.3/platform/service/udelay/src/sl_udelay.o
                0x08008c14                sl_udelay_wait
 .text          0x08008c94       0x30 c:/siliconlabs/simplicitystudio/v5/developer/toolchains/gnu_arm/12.2.rel1_2023.7/bin/../lib/gcc/arm-none-eabi/12.2.1/thumb/v8-m.main+fp/hard\libgcc.a(_aeabi_uldivmod.o)
                0x08008c94                __aeabi_uldivmod
 .text.__udivmoddi4
                0x08008cc4      0x2ec c:/siliconlabs/simplicitystudio/v5/developer/toolchains/gnu_arm/12.2.rel1_2023.7/bin/../lib/gcc/arm-none-eabi/12.2.1/thumb/v8-m.main+fp/hard\libgcc.a(_udivmoddi4.o)
                0x08008cc4                __udivmoddi4
 .text          0x08008fb0        0x4 c:/siliconlabs/simplicitystudio/v5/developer/toolchains/gnu_arm/12.2.rel1_2023.7/bin/../lib/gcc/arm-none-eabi/12.2.1/thumb/v8-m.main+fp/hard\libgcc.a(_dvmd_tls.o)
                0x08008fb0                __aeabi_idiv0
                0x08008fb0                __aeabi_ldiv0
 .text.exit     0x08008fb4       0x24 c:/siliconlabs/simplicitystudio/v5/developer/toolchains/gnu_arm/12.2.rel1_2023.7/bin/../lib/gcc/arm-none-eabi/12.2.1/thumb/v8-m.main+fp/hard\libc_nano.a(libc_a-exit.o)
                0x08008fb4                exit
 .text.std      0x08008fd8       0x6c c:/siliconlabs/simplicitystudio/v5/developer/toolchains/gnu_arm/12.2.rel1_2023.7/bin/../lib/gcc/arm-none-eabi/12.2.1/thumb/v8-m.main+fp/hard\libc_nano.a(libc_a-findfp.o)
 .text.stdio_exit_handler
                0x08009044       0x18 c:/siliconlabs/simplicitystudio/v5/developer/toolchains/gnu_arm/12.2.rel1_2023.7/bin/../lib/gcc/arm-none-eabi/12.2.1/thumb/v8-m.main+fp/hard\libc_nano.a(libc_a-findfp.o)
 .text.cleanup_stdio
                0x0800905c       0x40 c:/siliconlabs/simplicitystudio/v5/developer/toolchains/gnu_arm/12.2.rel1_2023.7/bin/../lib/gcc/arm-none-eabi/12.2.1/thumb/v8-m.main+fp/hard\libc_nano.a(libc_a-findfp.o)
 .text.global_stdio_init.part.0
                0x0800909c       0x3c c:/siliconlabs/simplicitystudio/v5/developer/toolchains/gnu_arm/12.2.rel1_2023.7/bin/../lib/gcc/arm-none-eabi/12.2.1/thumb/v8-m.main+fp/hard\libc_nano.a(libc_a-findfp.o)
 .text.__sfp_lock_acquire
                0x080090d8        0xc c:/siliconlabs/simplicitystudio/v5/developer/toolchains/gnu_arm/12.2.rel1_2023.7/bin/../lib/gcc/arm-none-eabi/12.2.1/thumb/v8-m.main+fp/hard\libc_nano.a(libc_a-findfp.o)
                0x080090d8                __sfp_lock_acquire
 .text.__sfp_lock_release
                0x080090e4        0xc c:/siliconlabs/simplicitystudio/v5/developer/toolchains/gnu_arm/12.2.rel1_2023.7/bin/../lib/gcc/arm-none-eabi/12.2.1/thumb/v8-m.main+fp/hard\libc_nano.a(libc_a-findfp.o)
                0x080090e4                __sfp_lock_release
 .text.__sinit  0x080090f0       0x30 c:/siliconlabs/simplicitystudio/v5/developer/toolchains/gnu_arm/12.2.rel1_2023.7/bin/../lib/gcc/arm-none-eabi/12.2.1/thumb/v8-m.main+fp/hard\libc_nano.a(libc_a-findfp.o)
                0x080090f0                __sinit
 .text.setvbuf  0x08009120      0x168 c:/siliconlabs/simplicitystudio/v5/developer/toolchains/gnu_arm/12.2.rel1_2023.7/bin/../lib/gcc/arm-none-eabi/12.2.1/thumb/v8-m.main+fp/hard\libc_nano.a(libc_a-setvbuf.o)
                0x08009120                setvbuf
 .text.vprintf  0x08009288       0x14 c:/siliconlabs/simplicitystudio/v5/developer/toolchains/gnu_arm/12.2.rel1_2023.7/bin/../lib/gcc/arm-none-eabi/12.2.1/thumb/v8-m.main+fp/hard\libc_nano.a(libc_a-vprintf.o)
                0x08009288                viprintf
                0x08009288                vprintf
 .text._close_r
                0x0800929c       0x20 c:/siliconlabs/simplicitystudio/v5/developer/toolchains/gnu_arm/12.2.rel1_2023.7/bin/../lib/gcc/arm-none-eabi/12.2.1/thumb/v8-m.main+fp/hard\libc_nano.a(libc_a-closer.o)
                0x0800929c                _close_r
 .text._lseek_r
                0x080092bc       0x24 c:/siliconlabs/simplicitystudio/v5/developer/toolchains/gnu_arm/12.2.rel1_2023.7/bin/../lib/gcc/arm-none-eabi/12.2.1/thumb/v8-m.main+fp/hard\libc_nano.a(libc_a-lseekr.o)
                0x080092bc                _lseek_r
 .text._read_r  0x080092e0       0x24 c:/siliconlabs/simplicitystudio/v5/developer/toolchains/gnu_arm/12.2.rel1_2023.7/bin/../lib/gcc/arm-none-eabi/12.2.1/thumb/v8-m.main+fp/hard\libc_nano.a(libc_a-readr.o)
                0x080092e0                _read_r
 .text._write_r
                0x08009304       0x24 c:/siliconlabs/simplicitystudio/v5/developer/toolchains/gnu_arm/12.2.rel1_2023.7/bin/../lib/gcc/arm-none-eabi/12.2.1/thumb/v8-m.main+fp/hard\libc_nano.a(libc_a-writer.o)
                0x08009304                _write_r
 .text.__libc_init_array
                0x08009328       0x48 c:/siliconlabs/simplicitystudio/v5/developer/toolchains/gnu_arm/12.2.rel1_2023.7/bin/../lib/gcc/arm-none-eabi/12.2.1/thumb/v8-m.main+fp/hard\libc_nano.a(libc_a-init.o)
                0x08009328                __libc_init_array
 .text._free_r  0x08009370       0x94 c:/siliconlabs/simplicitystudio/v5/developer/toolchains/gnu_arm/12.2.rel1_2023.7/bin/../lib/gcc/arm-none-eabi/12.2.1/thumb/v8-m.main+fp/hard\libc_nano.a(libc_a-freer.o)
                0x08009370                _free_r
 .text.malloc   0x08009404       0x10 c:/siliconlabs/simplicitystudio/v5/developer/toolchains/gnu_arm/12.2.rel1_2023.7/bin/../lib/gcc/arm-none-eabi/12.2.1/thumb/v8-m.main+fp/hard\libc_nano.a(libc_a-malloc.o)
                0x08009404                malloc
 .text.sbrk_aligned
                0x08009414       0x44 c:/siliconlabs/simplicitystudio/v5/developer/toolchains/gnu_arm/12.2.rel1_2023.7/bin/../lib/gcc/arm-none-eabi/12.2.1/thumb/v8-m.main+fp/hard\libc_nano.a(libc_a-mallocr.o)
 .text._malloc_r
                0x08009458       0xf0 c:/siliconlabs/simplicitystudio/v5/developer/toolchains/gnu_arm/12.2.rel1_2023.7/bin/../lib/gcc/arm-none-eabi/12.2.1/thumb/v8-m.main+fp/hard\libc_nano.a(libc_a-mallocr.o)
                0x08009458                _malloc_r
 .text.__malloc_lock
                0x08009548        0xc c:/siliconlabs/simplicitystudio/v5/developer/toolchains/gnu_arm/12.2.rel1_2023.7/bin/../lib/gcc/arm-none-eabi/12.2.1/thumb/v8-m.main+fp/hard\libc_nano.a(libc_a-mlock.o)
                0x08009548                __malloc_lock
 .text.__malloc_unlock
                0x08009554        0xc c:/siliconlabs/simplicitystudio/v5/developer/toolchains/gnu_arm/12.2.rel1_2023.7/bin/../lib/gcc/arm-none-eabi/12.2.1/thumb/v8-m.main+fp/hard\libc_nano.a(libc_a-mlock.o)
                0x08009554                __malloc_unlock
 .text._vfprintf_r
                0x08009560      0x230 c:/siliconlabs/simplicitystudio/v5/developer/toolchains/gnu_arm/12.2.rel1_2023.7/bin/../lib/gcc/arm-none-eabi/12.2.1/thumb/v8-m.main+fp/hard\libc_nano.a(libc_a-nano-vfprintf.o)
                0x08009560                _vfprintf_r
                0x08009560                _vfiprintf_r
 .text._printf_i
                0x08009790      0x258 c:/siliconlabs/simplicitystudio/v5/developer/toolchains/gnu_arm/12.2.rel1_2023.7/bin/../lib/gcc/arm-none-eabi/12.2.1/thumb/v8-m.main+fp/hard\libc_nano.a(libc_a-nano-vfprintf_i.o)
                0x08009790                _printf_i
 .text.__swsetup_r
                0x080099e8       0xac c:/siliconlabs/simplicitystudio/v5/developer/toolchains/gnu_arm/12.2.rel1_2023.7/bin/../lib/gcc/arm-none-eabi/12.2.1/thumb/v8-m.main+fp/hard\libc_nano.a(libc_a-wsetup.o)
                0x080099e8                __swsetup_r
 .text._fstat_r
                0x08009a94       0x24 c:/siliconlabs/simplicitystudio/v5/developer/toolchains/gnu_arm/12.2.rel1_2023.7/bin/../lib/gcc/arm-none-eabi/12.2.1/thumb/v8-m.main+fp/hard\libc_nano.a(libc_a-fstatr.o)
                0x08009a94                _fstat_r
 .text._isatty_r
                0x08009ab8       0x20 c:/siliconlabs/simplicitystudio/v5/developer/toolchains/gnu_arm/12.2.rel1_2023.7/bin/../lib/gcc/arm-none-eabi/12.2.1/thumb/v8-m.main+fp/hard\libc_nano.a(libc_a-isattyr.o)
                0x08009ab8                _isatty_r
 .text._sbrk_r  0x08009ad8       0x20 c:/siliconlabs/simplicitystudio/v5/developer/toolchains/gnu_arm/12.2.rel1_2023.7/bin/../lib/gcc/arm-none-eabi/12.2.1/thumb/v8-m.main+fp/hard\libc_nano.a(libc_a-sbrkr.o)
                0x08009ad8                _sbrk_r
 .text.BUS_RegBitRead
                0x08009af8       0x1a ./app.o
 .text.IADC_clearInt
                0x08009b12       0x18 ./iadc.o
 .text.IADC_enableInt
                0x08009b2a       0x18 ./iadc.o
 .text.IADC_command
                0x08009b42       0x12 ./iadc.o
 .text.IADC_getScanFifoCnt
                0x08009b54       0x18 ./iadc.o
 .text.IADC_portPinToPosInput
                0x08009b6c       0x2a ./iadc.o
 .text.supervisor_ticks_ms64
                0x08009b96        0xe ./iadc.o
                0x08009b96                supervisor_ticks_ms64
 .text.analog_input_is_deinitialized
                0x08009ba4       0x18 ./iadc.o
                0x08009ba4                analog_input_is_deinitialized
 .text.main     0x08009bbc       0x1a ./main.o
                0x08009bbc                main
 .text.initThermometer
                0x08009bd6        0xa ./thermometer.o
                0x08009bd6                initThermometer
 .text.sl_board_default_init
                0x08009be0        0x4 ./autogen/sl_board_default_init.o
                0x08009be0                sl_board_default_init
 .text.CHIP_Init
                0x08009be4        0x4 ./autogen/sl_event_handler.o
 .text.sl_platform_init
                0x08009be8       0x32 ./autogen/sl_event_handler.o
                0x08009be8                sl_platform_init
 .text.sl_driver_init
                0x08009c1a        0xe ./autogen/sl_event_handler.o
                0x08009c1a                sl_driver_init
 .text.sl_service_init
                0x08009c28       0x1a ./autogen/sl_event_handler.o
                0x08009c28                sl_service_init
 .text.sl_stack_init
                0x08009c42        0x4 ./autogen/sl_event_handler.o
                0x08009c42                sl_stack_init
 .text.sl_internal_app_init
                0x08009c46        0xa ./autogen/sl_event_handler.o
                0x08009c46                sl_internal_app_init
 .text.sl_platform_process_action
                0x08009c50        0x4 ./autogen/sl_event_handler.o
                0x08009c50                sl_platform_process_action
 .text.sl_service_process_action
                0x08009c54        0xa ./autogen/sl_event_handler.o
                0x08009c54                sl_service_process_action
 .text.sl_stack_process_action
                0x08009c5e        0x4 ./autogen/sl_event_handler.o
                0x08009c5e                sl_stack_process_action
 .text.sl_internal_app_process_action
                0x08009c62        0x4 ./autogen/sl_event_handler.o
                0x08009c62                sl_internal_app_process_action
 .text.sl_iostream_init_instances
                0x08009c66        0xa ./autogen/sl_event_handler.o
                0x08009c66                sl_iostream_init_instances
 .text.app_is_ok_to_sleep
                0x08009c70        0x6 ./autogen/sl_power_manager_handler.o
                0x08009c70                app_is_ok_to_sleep
 .text.app_sleep_on_isr_exit
                0x08009c76        0x6 ./autogen/sl_power_manager_handler.o
                0x08009c76                app_sleep_on_isr_exit
 .text.sl_power_manager_is_ok_to_sleep
                0x08009c7c       0x42 ./autogen/sl_power_manager_handler.o
                0x08009c7c                sl_power_manager_is_ok_to_sleep
 .text.sl_power_manager_sleep_on_isr_exit
                0x08009cbe       0x84 ./autogen/sl_power_manager_handler.o
                0x08009cbe                sl_power_manager_sleep_on_isr_exit
 .text._app_log_time
                0x08009d42        0x4 ./gecko_sdk_4.4.3/app/common/util/app_log/app_log.o
                0x08009d42                _app_log_time
 .text._app_log_counter
                0x08009d46        0x4 ./gecko_sdk_4.4.3/app/common/util/app_log/app_log.o
                0x08009d46                _app_log_counter
 .text.sl_board_configure_vcom
                0x08009d4a        0x6 ./gecko_sdk_4.4.3/hardware/board/src/sl_board_control_gpio.o
                0x08009d4a                sl_board_configure_vcom
 .text.sl_board_init
                0x08009d50       0x16 ./gecko_sdk_4.4.3/hardware/board/src/sl_board_init.o
                0x08009d50                sl_board_init
 .text.sl_board_preinit
                0x08009d66        0xe ./gecko_sdk_4.4.3/hardware/board/src/sl_board_init.o
                0x08009d66                sl_board_preinit
 .text.cs_low   0x08009d74        0xe ./gecko_sdk_4.4.3/hardware/driver/mx25_flash_shutdown/src/sl_mx25_flash_shutdown_usart/sl_mx25_flash_shutdown.o
 .text.cs_high  0x08009d82        0xe ./gecko_sdk_4.4.3/hardware/driver/mx25_flash_shutdown/src/sl_mx25_flash_shutdown_usart/sl_mx25_flash_shutdown.o
 .text.sl_si70xx_init
                0x08009d90       0x58 ./gecko_sdk_4.4.3/hardware/driver/si70xx/src/sl_si70xx.o
                0x08009d90                sl_si70xx_init
 .text.sl_si70xx_measure_rh_and_temp
                0x08009de8       0x6e ./gecko_sdk_4.4.3/hardware/driver/si70xx/src/sl_si70xx.o
                0x08009de8                sl_si70xx_measure_rh_and_temp
 .text.sl_si70xx_present
                0x08009e56       0x76 ./gecko_sdk_4.4.3/hardware/driver/si70xx/src/sl_si70xx.o
                0x08009e56                sl_si70xx_present
 .text.sl_si70xx_send_command
                0x08009ecc       0x86 ./gecko_sdk_4.4.3/hardware/driver/si70xx/src/sl_si70xx.o
 .text.sl_si70xx_get_percent_relative_humidity
                0x08009f52       0x1c ./gecko_sdk_4.4.3/hardware/driver/si70xx/src/sl_si70xx.o
 .text.sl_si70xx_get_celcius_temperature
                0x08009f6e       0x1c ./gecko_sdk_4.4.3/hardware/driver/si70xx/src/sl_si70xx.o
 .text.Default_Handler
                0x08009f8a        0x4 ./gecko_sdk_4.4.3/platform/Device/SiliconLabs/EFR32MG24/Source/startup_efr32mg24.o
                0x08009f8a                ULFRCO_IRQHandler
                0x08009f8a                AHB2AHB1_IRQHandler
                0x08009f8a                SW2_IRQHandler
                0x08009f8a                TIMER2_IRQHandler
                0x08009f8a                DebugMon_Handler
                0x08009f8a                USART0_TX_IRQHandler
                0x08009f8a                EUSART0_TX_IRQHandler
                0x08009f8a                I2C0_IRQHandler
                0x08009f8a                LFXO_IRQHandler
                0x08009f8a                HardFault_Handler
                0x08009f8a                SMU_SECURE_IRQHandler
                0x08009f8a                SysTick_Handler
                0x08009f8a                SYSRTC_SEQ_IRQHandler
                0x08009f8a                EMUEFP_IRQHandler
                0x08009f8a                PendSV_Handler
                0x08009f8a                NMI_Handler
                0x08009f8a                SYNTH_IRQHandler
                0x08009f8a                HOSTMAILBOX_IRQHandler
                0x08009f8a                I2C1_IRQHandler
                0x08009f8a                WDOG0_IRQHandler
                0x08009f8a                TIMER3_IRQHandler
                0x08009f8a                SYSCFG_IRQHandler
                0x08009f8a                RFECA1_IRQHandler
                0x08009f8a                EMUDG_IRQHandler
                0x08009f8a                MSC_IRQHandler
                0x08009f8a                DPLL0_IRQHandler
                0x08009f8a                UsageFault_Handler
                0x08009f8a                WDOG1_IRQHandler
                0x08009f8a                M33CTI1_IRQHandler
                0x08009f8a                TIMER4_IRQHandler
                0x08009f8a                GPIO_EVEN_IRQHandler
                0x08009f8a                VDAC0_IRQHandler
                0x08009f8a                LDMA_IRQHandler
                0x08009f8a                SEMBTX_IRQHandler
                0x08009f8a                SW0_IRQHandler
                0x08009f8a                TIMER0_IRQHandler
                0x08009f8a                MVP_IRQHandler
                0x08009f8a                LETIMER0_IRQHandler
                0x08009f8a                EUSART1_RX_IRQHandler
                0x08009f8a                TIMER1_IRQHandler
                0x08009f8a                HFRCO0_IRQHandler
                0x08009f8a                SecureFault_Handler
                0x08009f8a                BUFC_IRQHandler
                0x08009f8a                DCDC_IRQHandler
                0x08009f8a                MODEM_IRQHandler
                0x08009f8a                Default_Handler
                0x08009f8a                RAC_SEQ_IRQHandler
                0x08009f8a                FRC_PRI_IRQHandler
                0x08009f8a                SW3_IRQHandler
                0x08009f8a                EMU_IRQHandler
                0x08009f8a                KERNEL0_IRQHandler
                0x08009f8a                FRC_IRQHandler
                0x08009f8a                PCNT0_IRQHandler
                0x08009f8a                KERNEL1_IRQHandler
                0x08009f8a                AGC_IRQHandler
                0x08009f8a                EUSART1_TX_IRQHandler
                0x08009f8a                KEYSCAN_IRQHandler
                0x08009f8a                HFRCOEM23_IRQHandler
                0x08009f8a                sl_app_properties
                0x08009f8a                BURTC_IRQHandler
                0x08009f8a                SEMBRX_IRQHandler
                0x08009f8a                RFECA0_IRQHandler
                0x08009f8a                LFRCO_IRQHandler
                0x08009f8a                VDAC1_IRQHandler
                0x08009f8a                ACMP0_IRQHandler
                0x08009f8a                USART0_RX_IRQHandler
                0x08009f8a                MemManage_Handler
                0x08009f8a                AHB2AHB0_IRQHandler
                0x08009f8a                SVC_Handler
                0x08009f8a                SMU_S_PRIVILEGED_IRQHandler
                0x08009f8a                SW1_IRQHandler
                0x08009f8a                CMU_IRQHandler
                0x08009f8a                EUSART0_RX_IRQHandler
                0x08009f8a                RAC_RSM_IRQHandler
                0x08009f8a                SETAMPERHOST_IRQHandler
                0x08009f8a                GPIO_ODD_IRQHandler
                0x08009f8a                AES_IRQHandler
                0x08009f8a                M33CTI0_IRQHandler
                0x08009f8a                ICACHE0_IRQHandler
                0x08009f8a                SMU_NS_PRIVILEGED_IRQHandler
                0x08009f8a                FPUEXH_IRQHandler
                0x08009f8a                PROTIMER_IRQHandler
                0x08009f8a                ACMP1_IRQHandler
                0x08009f8a                BusFault_Handler
                0x08009f8a                MPAHBRAM_IRQHandler
 .text.FlashToRamCopy
                0x08009f8e       0x30 ./gecko_sdk_4.4.3/platform/Device/SiliconLabs/EFR32MG24/Source/system_efr32mg24.o
                0x08009f8e                FlashToRamCopy
 .text.SystemCLKIN0Get
                0x08009fbe        0x6 ./gecko_sdk_4.4.3/platform/Device/SiliconLabs/EFR32MG24/Source/system_efr32mg24.o
                0x08009fbe                SystemCLKIN0Get
 .text.SystemLFRCOClockGet
                0x08009fc4        0x8 ./gecko_sdk_4.4.3/platform/Device/SiliconLabs/EFR32MG24/Source/system_efr32mg24.o
                0x08009fc4                SystemLFRCOClockGet
 .text.SystemULFRCOClockGet
                0x08009fcc        0x8 ./gecko_sdk_4.4.3/platform/Device/SiliconLabs/EFR32MG24/Source/system_efr32mg24.o
                0x08009fcc                SystemULFRCOClockGet
 .text.assertEFM
                0x08009fd4        0xa ./gecko_sdk_4.4.3/platform/common/src/sl_assert.o
                0x08009fd4                assertEFM
 .text.sl_slist_init
                0x08009fde       0x10 ./gecko_sdk_4.4.3/platform/common/src/sl_slist.o
                0x08009fde                sl_slist_init
 .text.sl_debug_swo_enable_itm
                0x08009fee       0x26 ./gecko_sdk_4.4.3/platform/driver/debug/src/sl_debug_swo.o
                0x08009fee                sl_debug_swo_enable_itm
 .text.SystemCoreClockGet
                0x0800a014        0xc ./gecko_sdk_4.4.3/platform/emlib/src/em_cmu.o
 .text.BUS_RegBitRead
                0x0800a020       0x1a ./gecko_sdk_4.4.3/platform/emlib/src/em_cmu.o
 .text.BUS_RegMaskedWrite
                0x0800a03a       0x34 ./gecko_sdk_4.4.3/platform/emlib/src/em_cmu.o
 .text.sli_em_cmu_SYSCLKInitPreClockSelect
                0x0800a06e       0x1a ./gecko_sdk_4.4.3/platform/emlib/src/em_cmu.o
                0x0800a06e                sli_em_cmu_SYSCLKInitPreClockSelect
 .text.sli_em_cmu_SYSCLKInitPostClockSelect
                0x0800a088       0x2e ./gecko_sdk_4.4.3/platform/emlib/src/em_cmu.o
                0x0800a088                sli_em_cmu_SYSCLKInitPostClockSelect
 .text.CMU_UpdateWaitStates
                0x0800a0b6       0x28 ./gecko_sdk_4.4.3/platform/emlib/src/em_cmu.o
                0x0800a0b6                CMU_UpdateWaitStates
 .text.pclkDivMax
                0x0800a0de       0x10 ./gecko_sdk_4.4.3/platform/emlib/src/em_cmu.o
 .text.waitStateMax
                0x0800a0ee       0x14 ./gecko_sdk_4.4.3/platform/emlib/src/em_cmu.o
 .text.CORE_EnterCritical
                0x0800a102       0x18 ./gecko_sdk_4.4.3/platform/emlib/src/em_core.o
                0x0800a102                CORE_EnterCritical
 .text.CORE_ExitCritical
                0x0800a11a       0x14 ./gecko_sdk_4.4.3/platform/emlib/src/em_core.o
                0x0800a11a                CORE_ExitCritical
 .text.CORE_EnterAtomic
                0x0800a12e       0x20 ./gecko_sdk_4.4.3/platform/emlib/src/em_core.o
                0x0800a12e                CORE_EnterAtomic
 .text.CORE_ExitAtomic
                0x0800a14e       0x16 ./gecko_sdk_4.4.3/platform/emlib/src/em_core.o
                0x0800a14e                CORE_ExitAtomic
 .text.SystemCoreClockUpdate
                0x0800a164        0xa ./gecko_sdk_4.4.3/platform/emlib/src/em_emu.o
 .text.BUS_RegBitRead
                0x0800a16e       0x1a ./gecko_sdk_4.4.3/platform/emlib/src/em_emu.o
 .text.vScaleEM01Cmd
                0x0800a188       0x1c ./gecko_sdk_4.4.3/platform/emlib/src/em_emu.o
 .text.EMU_EFPEM23PresleepHook
                0x0800a1a4        0x4 ./gecko_sdk_4.4.3/platform/emlib/src/em_emu.o
                0x0800a1a4                EMU_EFPEM23PresleepHook
 .text.EMU_EFPEM23PostsleepHook
                0x0800a1a8        0x4 ./gecko_sdk_4.4.3/platform/emlib/src/em_emu.o
                0x0800a1a8                EMU_EFPEM23PostsleepHook
 .text.EMU_Save
                0x0800a1ac        0x4 ./gecko_sdk_4.4.3/platform/emlib/src/em_emu.o
                0x0800a1ac                EMU_Save
 .text.EMU_Restore
                0x0800a1b0        0x4 ./gecko_sdk_4.4.3/platform/emlib/src/em_emu.o
                0x0800a1b0                EMU_Restore
 .text.EMU_EFPEM01VScale
                0x0800a1b4        0xe ./gecko_sdk_4.4.3/platform/emlib/src/em_emu.o
                0x0800a1b4                EMU_EFPEM01VScale
 .text.EMU_DCDCUpdatedHook
                0x0800a1c2        0x4 ./gecko_sdk_4.4.3/platform/emlib/src/em_emu.o
                0x0800a1c2                EMU_DCDCUpdatedHook
 .text.BUS_RegMaskedWrite
                0x0800a1c6       0x34 ./gecko_sdk_4.4.3/platform/emlib/src/em_gpio.o
 .text.GPIO_DbgLocationSet
                0x0800a1fa        0xa ./gecko_sdk_4.4.3/platform/emlib/src/em_gpio.o
                0x0800a1fa                GPIO_DbgLocationSet
 .text.I2C_IntClear
                0x0800a204       0x18 ./gecko_sdk_4.4.3/platform/emlib/src/em_i2c.o
 .text.BUS_RegMaskedWrite
                0x0800a21c       0x34 ./gecko_sdk_4.4.3/platform/emlib/src/em_i2c.o
 .text.flushRx  0x0800a250       0x28 ./gecko_sdk_4.4.3/platform/emlib/src/em_i2c.o
 .text.IADC_command
                0x0800a278       0x12 ./gecko_sdk_4.4.3/platform/emlib/src/em_iadc.o
 .text.IADC_enable
                0x0800a28a       0x16 ./gecko_sdk_4.4.3/platform/emlib/src/em_iadc.o
 .text.IADC_ConvertRawDataToResult
                0x0800a2a0       0x72 ./gecko_sdk_4.4.3/platform/emlib/src/em_iadc.o
 .text.IADC_pullScanFifoResult
                0x0800a312       0x2e ./gecko_sdk_4.4.3/platform/emlib/src/em_iadc.o
                0x0800a312                IADC_pullScanFifoResult
 .text.USART_SpiTransfer
                0x0800a340       0x3a ./gecko_sdk_4.4.3/platform/emlib/src/em_usart.o
                0x0800a340                USART_SpiTransfer
 .text.sl_device_init_nvic
                0x0800a37a       0x38 ./gecko_sdk_4.4.3/platform/service/device_init/src/sl_device_init_nvic.o
                0x0800a37a                sl_device_init_nvic
 .text.sl_hfxo_manager_init_hardware
                0x0800a3b2        0xa ./gecko_sdk_4.4.3/platform/service/hfxo_manager/src/sl_hfxo_manager.o
                0x0800a3b2                sl_hfxo_manager_init_hardware
 .text.HFXO0_IRQHandler
                0x0800a3bc        0xa ./gecko_sdk_4.4.3/platform/service/hfxo_manager/src/sl_hfxo_manager_hal_s2.o
                0x0800a3bc                HFXO0_IRQHandler
 .text.sl_iostream_write
                0x0800a3c6       0x40 ./gecko_sdk_4.4.3/platform/service/iostream/src/sl_iostream.o
                0x0800a3c6                sl_iostream_write
 .text.sl_iostream_read
                0x0800a406       0x50 ./gecko_sdk_4.4.3/platform/service/iostream/src/sl_iostream.o
                0x0800a406                sl_iostream_read
 .text.sl_iostream_vprintf
                0x0800a456       0x64 ./gecko_sdk_4.4.3/platform/service/iostream/src/sl_iostream.o
                0x0800a456                sl_iostream_vprintf
 .text.sl_iostream_printf
                0x0800a4ba       0x26 ./gecko_sdk_4.4.3/platform/service/iostream/src/sl_iostream.o
                0x0800a4ba                sl_iostream_printf
 .text._close   0x0800a4e0        0xc ./gecko_sdk_4.4.3/platform/service/iostream/src/sl_iostream_retarget_stdio.o
                0x0800a4e0                _close
 .text._exit    0x0800a4ec        0x8 ./gecko_sdk_4.4.3/platform/service/iostream/src/sl_iostream_retarget_stdio.o
                0x0800a4ec                _exit
 .text._fstat   0x0800a4f4       0x16 ./gecko_sdk_4.4.3/platform/service/iostream/src/sl_iostream_retarget_stdio.o
                0x0800a4f4                _fstat
 .text._isatty  0x0800a50a        0xc ./gecko_sdk_4.4.3/platform/service/iostream/src/sl_iostream_retarget_stdio.o
                0x0800a50a                _isatty
 .text._lseek   0x0800a516       0x10 ./gecko_sdk_4.4.3/platform/service/iostream/src/sl_iostream_retarget_stdio.o
                0x0800a516                _lseek
 .text._read    0x0800a526       0x30 ./gecko_sdk_4.4.3/platform/service/iostream/src/sl_iostream_retarget_stdio.o
                0x0800a526                _read
 .text.sli_iostream_swo_itm_8_write
                0x0800a556       0xe8 ./gecko_sdk_4.4.3/platform/service/iostream/src/sl_iostream_swo_itm_8.o
                0x0800a556                sli_iostream_swo_itm_8_write
 .text.sli_power_manager_initiate_restore
                0x0800a63e       0x1c ./gecko_sdk_4.4.3/platform/service/power_manager/src/sl_power_manager.o
                0x0800a63e                sli_power_manager_initiate_restore
 .text.enter_critical_with_primask
                0x0800a65a       0x18 ./gecko_sdk_4.4.3/platform/service/power_manager/src/sl_power_manager.o
 .text.exit_critical_with_primask
                0x0800a672       0x14 ./gecko_sdk_4.4.3/platform/service/power_manager/src/sl_power_manager.o
 .text.SystemCoreClockUpdate
                0x0800a686        0xa ./gecko_sdk_4.4.3/platform/service/power_manager/src/sl_power_manager_hal_s2.o
 .text.sli_power_manager_get_default_high_frequency_minimum_offtime
                0x0800a690       0x10 ./gecko_sdk_4.4.3/platform/service/power_manager/src/sl_power_manager_hal_s2.o
                0x0800a690                sli_power_manager_get_default_high_frequency_minimum_offtime
 .text.sli_power_manager_low_frequency_restore
                0x0800a6a0        0x4 ./gecko_sdk_4.4.3/platform/service/power_manager/src/sl_power_manager_hal_s2.o
                0x0800a6a0                sli_power_manager_low_frequency_restore
 .text.sl_sleeptimer_start_timer
                0x0800a6a4       0x66 ./gecko_sdk_4.4.3/platform/service/sleeptimer/src/sl_sleeptimer.o
                0x0800a6a4                sl_sleeptimer_start_timer
 .text.sl_sleeptimer_restart_timer
                0x0800a70a       0x4e ./gecko_sdk_4.4.3/platform/service/sleeptimer/src/sl_sleeptimer.o
                0x0800a70a                sl_sleeptimer_restart_timer
 .text.sl_sleeptimer_get_tick_count
                0x0800a758       0x20 ./gecko_sdk_4.4.3/platform/service/sleeptimer/src/sl_sleeptimer.o
                0x0800a758                sl_sleeptimer_get_tick_count
 .text.delay_callback
                0x0800a778       0x16 ./gecko_sdk_4.4.3/platform/service/sleeptimer/src/sl_sleeptimer.o
 .text.sli_sleeptimer_get_capture
                0x0800a78e        0xc ./gecko_sdk_4.4.3/platform/service/sleeptimer/src/sl_sleeptimer.o
                0x0800a78e                sli_sleeptimer_get_capture
 .text.sli_sleeptimer_reset_prs_signal
                0x0800a79a        0xa ./gecko_sdk_4.4.3/platform/service/sleeptimer/src/sl_sleeptimer.o
                0x0800a79a                sli_sleeptimer_reset_prs_signal
 .text.sl_power_manager_add_em_requirement
                0x0800a7a4       0x2a ./gecko_sdk_4.4.3/platform/service/sleeptimer/src/sl_sleeptimer_hal_sysrtc.o
 .text.sleeptimer_hal_init_timer
                0x0800a7ce       0x76 ./gecko_sdk_4.4.3/platform/service/sleeptimer/src/sl_sleeptimer_hal_sysrtc.o
                0x0800a7ce                sleeptimer_hal_init_timer
 .text.sleeptimer_hal_get_counter
                0x0800a844        0xc ./gecko_sdk_4.4.3/platform/service/sleeptimer/src/sl_sleeptimer_hal_sysrtc.o
                0x0800a844                sleeptimer_hal_get_counter
 .text.sleeptimer_hal_get_compare
                0x0800a850       0x10 ./gecko_sdk_4.4.3/platform/service/sleeptimer/src/sl_sleeptimer_hal_sysrtc.o
                0x0800a850                sleeptimer_hal_get_compare
 .text.sleeptimer_hal_enable_int
                0x0800a860       0x46 ./gecko_sdk_4.4.3/platform/service/sleeptimer/src/sl_sleeptimer_hal_sysrtc.o
                0x0800a860                sleeptimer_hal_enable_int
 .text.sli_sleeptimer_hal_is_int_status_set
                0x0800a8a6       0x5a ./gecko_sdk_4.4.3/platform/service/sleeptimer/src/sl_sleeptimer_hal_sysrtc.o
                0x0800a8a6                sli_sleeptimer_hal_is_int_status_set
 .text.SYSRTC_APP_IRQHandler
                0x0800a900       0x6a ./gecko_sdk_4.4.3/platform/service/sleeptimer/src/sl_sleeptimer_hal_sysrtc.o
                0x0800a900                SYSRTC_APP_IRQHandler
 .text.sleeptimer_hal_get_timer_frequency
                0x0800a96a        0xe ./gecko_sdk_4.4.3/platform/service/sleeptimer/src/sl_sleeptimer_hal_sysrtc.o
                0x0800a96a                sleeptimer_hal_get_timer_frequency
 .text.get_time_diff
                0x0800a978       0x12 ./gecko_sdk_4.4.3/platform/service/sleeptimer/src/sl_sleeptimer_hal_sysrtc.o
 .text.sleeptimer_hal_get_capture
                0x0800a98a       0x2a ./gecko_sdk_4.4.3/platform/service/sleeptimer/src/sl_sleeptimer_hal_sysrtc.o
                0x0800a98a                sleeptimer_hal_get_capture
 .text.sleeptimer_hal_reset_prs_signal
                0x0800a9b4        0xe ./gecko_sdk_4.4.3/platform/service/sleeptimer/src/sl_sleeptimer_hal_sysrtc.o
                0x0800a9b4                sleeptimer_hal_reset_prs_signal
 .text.sl_system_init
                0x0800a9c2       0x1a ./gecko_sdk_4.4.3/platform/service/system/src/sl_system_init.o
                0x0800a9c2                sl_system_init
 .text.sl_system_process_action
                0x0800a9dc       0x16 ./gecko_sdk_4.4.3/platform/service/system/src/sl_system_process_action.o
                0x0800a9dc                sl_system_process_action
 .text.SystemCoreClockGet
                0x0800a9f2        0xc ./gecko_sdk_4.4.3/platform/service/udelay/src/sl_udelay.o
 .text._fwalk_sglue
                0x0800a9fe       0x3c c:/siliconlabs/simplicitystudio/v5/developer/toolchains/gnu_arm/12.2.rel1_2023.7/bin/../lib/gcc/arm-none-eabi/12.2.1/thumb/v8-m.main+fp/hard\libc_nano.a(libc_a-fwalk.o)
                0x0800a9fe                _fwalk_sglue
 .text.__sread  0x0800aa3a       0x22 c:/siliconlabs/simplicitystudio/v5/developer/toolchains/gnu_arm/12.2.rel1_2023.7/bin/../lib/gcc/arm-none-eabi/12.2.1/thumb/v8-m.main+fp/hard\libc_nano.a(libc_a-stdio.o)
                0x0800aa3a                __sread
 .text.__swrite
                0x0800aa5c       0x38 c:/siliconlabs/simplicitystudio/v5/developer/toolchains/gnu_arm/12.2.rel1_2023.7/bin/../lib/gcc/arm-none-eabi/12.2.1/thumb/v8-m.main+fp/hard\libc_nano.a(libc_a-stdio.o)
                0x0800aa5c                __swrite
 .text.__sseek  0x0800aa94       0x24 c:/siliconlabs/simplicitystudio/v5/developer/toolchains/gnu_arm/12.2.rel1_2023.7/bin/../lib/gcc/arm-none-eabi/12.2.1/thumb/v8-m.main+fp/hard\libc_nano.a(libc_a-stdio.o)
                0x0800aa94                __sseek
 .text.__sclose
                0x0800aab8        0x8 c:/siliconlabs/simplicitystudio/v5/developer/toolchains/gnu_arm/12.2.rel1_2023.7/bin/../lib/gcc/arm-none-eabi/12.2.1/thumb/v8-m.main+fp/hard\libc_nano.a(libc_a-stdio.o)
                0x0800aab8                __sclose
 .text.memset   0x0800aac0       0x10 c:/siliconlabs/simplicitystudio/v5/developer/toolchains/gnu_arm/12.2.rel1_2023.7/bin/../lib/gcc/arm-none-eabi/12.2.1/thumb/v8-m.main+fp/hard\libc_nano.a(libc_a-memset.o)
                0x0800aac0                memset
 .text.__retarget_lock_init_recursive
                0x0800aad0        0x2 c:/siliconlabs/simplicitystudio/v5/developer/toolchains/gnu_arm/12.2.rel1_2023.7/bin/../lib/gcc/arm-none-eabi/12.2.1/thumb/v8-m.main+fp/hard\libc_nano.a(libc_a-lock.o)
                0x0800aad0                __retarget_lock_init_recursive
 .text.__retarget_lock_acquire_recursive
                0x0800aad2        0x2 c:/siliconlabs/simplicitystudio/v5/developer/toolchains/gnu_arm/12.2.rel1_2023.7/bin/../lib/gcc/arm-none-eabi/12.2.1/thumb/v8-m.main+fp/hard\libc_nano.a(libc_a-lock.o)
                0x0800aad2                __retarget_lock_acquire_recursive
 .text.__retarget_lock_release_recursive
                0x0800aad4        0x2 c:/siliconlabs/simplicitystudio/v5/developer/toolchains/gnu_arm/12.2.rel1_2023.7/bin/../lib/gcc/arm-none-eabi/12.2.1/thumb/v8-m.main+fp/hard\libc_nano.a(libc_a-lock.o)
                0x0800aad4                __retarget_lock_release_recursive
 .text.__sfputc_r
                0x0800aad6       0x2e c:/siliconlabs/simplicitystudio/v5/developer/toolchains/gnu_arm/12.2.rel1_2023.7/bin/../lib/gcc/arm-none-eabi/12.2.1/thumb/v8-m.main+fp/hard\libc_nano.a(libc_a-nano-vfprintf.o)
 .text.__sfputs_r
                0x0800ab04       0x24 c:/siliconlabs/simplicitystudio/v5/developer/toolchains/gnu_arm/12.2.rel1_2023.7/bin/../lib/gcc/arm-none-eabi/12.2.1/thumb/v8-m.main+fp/hard\libc_nano.a(libc_a-nano-vfprintf.o)
                0x0800ab04                __sfputs_r
 .text._printf_common
                0x0800ab28       0xe4 c:/siliconlabs/simplicitystudio/v5/developer/toolchains/gnu_arm/12.2.rel1_2023.7/bin/../lib/gcc/arm-none-eabi/12.2.1/thumb/v8-m.main+fp/hard\libc_nano.a(libc_a-nano-vfprintf_i.o)
                0x0800ab28                _printf_common
 .text.__sflush_r
                0x0800ac0c      0x106 c:/siliconlabs/simplicitystudio/v5/developer/toolchains/gnu_arm/12.2.rel1_2023.7/bin/../lib/gcc/arm-none-eabi/12.2.1/thumb/v8-m.main+fp/hard\libc_nano.a(libc_a-fflush.o)
                0x0800ac0c                __sflush_r
 .text._fflush_r
                0x0800ad12       0x50 c:/siliconlabs/simplicitystudio/v5/developer/toolchains/gnu_arm/12.2.rel1_2023.7/bin/../lib/gcc/arm-none-eabi/12.2.1/thumb/v8-m.main+fp/hard\libc_nano.a(libc_a-fflush.o)
                0x0800ad12                _fflush_r
 .text.__swhatbuf_r
                0x0800ad62       0x4a c:/siliconlabs/simplicitystudio/v5/developer/toolchains/gnu_arm/12.2.rel1_2023.7/bin/../lib/gcc/arm-none-eabi/12.2.1/thumb/v8-m.main+fp/hard\libc_nano.a(libc_a-makebuf.o)
                0x0800ad62                __swhatbuf_r
 .text.__smakebuf_r
                0x0800adac       0x78 c:/siliconlabs/simplicitystudio/v5/developer/toolchains/gnu_arm/12.2.rel1_2023.7/bin/../lib/gcc/arm-none-eabi/12.2.1/thumb/v8-m.main+fp/hard\libc_nano.a(libc_a-makebuf.o)
                0x0800adac                __smakebuf_r
 .text.__swbuf_r
                0x0800ae24       0x7c c:/siliconlabs/simplicitystudio/v5/developer/toolchains/gnu_arm/12.2.rel1_2023.7/bin/../lib/gcc/arm-none-eabi/12.2.1/thumb/v8-m.main+fp/hard\libc_nano.a(libc_a-wbuf.o)
                0x0800ae24                __swbuf_r
 .text.memchr   0x0800aea0       0x1c c:/siliconlabs/simplicitystudio/v5/developer/toolchains/gnu_arm/12.2.rel1_2023.7/bin/../lib/gcc/arm-none-eabi/12.2.1/thumb/v8-m.main+fp/hard\libc_nano.a(libc_a-memchr-stub.o)
                0x0800aea0                memchr
                0x0800aec0                . = ALIGN (0x20)
 *fill*         0x0800aebc        0x4 
                0x0800aec0                linker_code_end = .
 *(.init)
 .init          0x0800aec0        0x4 c:/siliconlabs/simplicitystudio/v5/developer/toolchains/gnu_arm/12.2.rel1_2023.7/bin/../lib/gcc/arm-none-eabi/12.2.1/thumb/v8-m.main+fp/hard/crti.o
                0x0800aec0                _init
 .init          0x0800aec4        0x8 c:/siliconlabs/simplicitystudio/v5/developer/toolchains/gnu_arm/12.2.rel1_2023.7/bin/../lib/gcc/arm-none-eabi/12.2.1/thumb/v8-m.main+fp/hard/crtn.o
 *(.fini)
 .fini          0x0800aecc        0x4 c:/siliconlabs/simplicitystudio/v5/developer/toolchains/gnu_arm/12.2.rel1_2023.7/bin/../lib/gcc/arm-none-eabi/12.2.1/thumb/v8-m.main+fp/hard/crti.o
                0x0800aecc                _fini
 .fini          0x0800aed0        0x8 c:/siliconlabs/simplicitystudio/v5/developer/toolchains/gnu_arm/12.2.rel1_2023.7/bin/../lib/gcc/arm-none-eabi/12.2.1/thumb/v8-m.main+fp/hard/crtn.o
 *crtbegin.o(.ctors)
 *crtbegin?.o(.ctors)
 *(EXCLUDE_FILE(*crtend.o *crtend?.o) .ctors)
 *(SORT_BY_NAME(.ctors.*))
 *(.ctors)
 *crtbegin.o(.dtors)
 *crtbegin?.o(.dtors)
 *(EXCLUDE_FILE(*crtend.o *crtend?.o) .dtors)
 *(SORT_BY_NAME(.dtors.*))
 *(.dtors)
                0x0800aed8                __code_classification_validator_start__ = .
                0x0800aef8                . = (. + 0x20)
 *fill*         0x0800aed8       0x20 
 *(code_classification_validator)
                0x0800af00                . = ALIGN (0x20)
 *fill*         0x0800aef8        0x8 
                0x0800af00                __code_classification_validator_end__ = .
 *(.rodata*)
 .rodata        0x0800af00       0x35 ./app.o
 *fill*         0x0800af35        0x3 
 .rodata        0x0800af38       0x28 ./iadc.o
 .rodata        0x0800af60       0xa9 ./gecko_sdk_4.4.3/app/bluetooth/common/sensor_rht/sl_sensor_rht.o
 *fill*         0x0800b009        0x3 
 .rodata.__func__.0
                0x0800b00c       0x13 ./gecko_sdk_4.4.3/app/bluetooth/common/sensor_rht/sl_sensor_rht.o
 *fill*         0x0800b01f        0x1 
 .rodata        0x0800b020       0x43 ./gecko_sdk_4.4.3/hardware/board/src/sl_board_control_gpio.o
 *fill*         0x0800b063        0x1 
 .rodata        0x0800b064       0x54 ./gecko_sdk_4.4.3/hardware/driver/mx25_flash_shutdown/src/sl_mx25_flash_shutdown_usart/sl_mx25_flash_shutdown.o
 .rodata        0x0800b0b8       0x37 ./gecko_sdk_4.4.3/platform/common/src/sl_slist.o
 *fill*         0x0800b0ef        0x1 
 .rodata        0x0800b0f0       0x34 ./gecko_sdk_4.4.3/platform/driver/debug/src/sl_debug_swo.o
 .rodata        0x0800b124       0x77 ./gecko_sdk_4.4.3/platform/driver/i2cspm/src/sl_i2cspm.o
 *fill*         0x0800b19b        0x1 
 .rodata        0x0800b19c       0x68 ./gecko_sdk_4.4.3/platform/emlib/src/em_cmu.o
 .rodata        0x0800b204       0x34 ./gecko_sdk_4.4.3/platform/emlib/src/em_emu.o
 .rodata        0x0800b238       0xa1 ./gecko_sdk_4.4.3/platform/emlib/src/em_gpio.o
 *fill*         0x0800b2d9        0x3 
 .rodata        0x0800b2dc       0x68 ./gecko_sdk_4.4.3/platform/emlib/src/em_i2c.o
 .rodata.i2cNSum
                0x0800b344        0x4 ./gecko_sdk_4.4.3/platform/emlib/src/em_i2c.o
 .rodata        0x0800b348       0x50 ./gecko_sdk_4.4.3/platform/emlib/src/em_iadc.o
 .rodata        0x0800b398       0x34 ./gecko_sdk_4.4.3/platform/emlib/src/em_prs.o
 .rodata        0x0800b3cc       0x36 ./gecko_sdk_4.4.3/platform/emlib/src/em_usart.o
 *fill*         0x0800b402        0x2 
 .rodata        0x0800b404       0x44 ./gecko_sdk_4.4.3/platform/peripheral/src/peripheral_sysrtc.o
 .rodata        0x0800b448        0x7 ./gecko_sdk_4.4.3/platform/service/device_init/src/sl_device_init_dcdc_s2.o
 *fill*         0x0800b44f        0x1 
 .rodata        0x0800b450       0x28 ./gecko_sdk_4.4.3/platform/service/device_init/src/sl_device_init_hfxo_s2.o
 .rodata        0x0800b478       0x14 ./gecko_sdk_4.4.3/platform/service/device_init/src/sl_device_init_lfxo_s2.o
 .rodata        0x0800b48c       0x4c ./gecko_sdk_4.4.3/platform/service/hfxo_manager/src/sl_hfxo_manager.o
 .rodata        0x0800b4d8       0x53 ./gecko_sdk_4.4.3/platform/service/iostream/src/sl_iostream_retarget_stdio.o
 *fill*         0x0800b52b        0x1 
 .rodata        0x0800b52c       0x4e ./gecko_sdk_4.4.3/platform/service/iostream/src/sl_iostream_swo_itm_8.o
 *fill*         0x0800b57a        0x2 
 .rodata        0x0800b57c       0x4e ./gecko_sdk_4.4.3/platform/service/power_manager/src/sl_power_manager.o
 *fill*         0x0800b5ca        0x2 
 .rodata        0x0800b5cc       0x55 ./gecko_sdk_4.4.3/platform/service/power_manager/src/sl_power_manager_hal_s2.o
 *fill*         0x0800b621        0x3 
 .rodata        0x0800b624       0x48 ./gecko_sdk_4.4.3/platform/service/sleeptimer/src/sl_sleeptimer.o
 .rodata        0x0800b66c       0x40 ./gecko_sdk_4.4.3/platform/service/udelay/src/sl_udelay.o
 .rodata._vfprintf_r.str1.1
                0x0800b6ac       0x11 c:/siliconlabs/simplicitystudio/v5/developer/toolchains/gnu_arm/12.2.rel1_2023.7/bin/../lib/gcc/arm-none-eabi/12.2.1/thumb/v8-m.main+fp/hard\libc_nano.a(libc_a-nano-vfprintf.o)
 .rodata._printf_i.str1.1
                0x0800b6bd       0x22 c:/siliconlabs/simplicitystudio/v5/developer/toolchains/gnu_arm/12.2.rel1_2023.7/bin/../lib/gcc/arm-none-eabi/12.2.1/thumb/v8-m.main+fp/hard\libc_nano.a(libc_a-nano-vfprintf_i.o)
 *(.eh_frame*)
 *fill*         0x0800b6df        0x1 
 .eh_frame      0x0800b6e0        0x0 c:/siliconlabs/simplicitystudio/v5/developer/toolchains/gnu_arm/12.2.rel1_2023.7/bin/../lib/gcc/arm-none-eabi/12.2.1/thumb/v8-m.main+fp/hard/crtbegin.o

.glue_7         0x0800b6e0        0x0
 .glue_7        0x0800b6e0        0x0 linker stubs

.glue_7t        0x0800b6e0        0x0
 .glue_7t       0x0800b6e0        0x0 linker stubs

.vfp11_veneer   0x0800b6e0        0x0
 .vfp11_veneer  0x0800b6e0        0x0 linker stubs

.v4_bx          0x0800b6e0        0x0
 .v4_bx         0x0800b6e0        0x0 linker stubs

.iplt           0x0800b6e0        0x0
 .iplt          0x0800b6e0        0x0 c:/siliconlabs/simplicitystudio/v5/developer/toolchains/gnu_arm/12.2.rel1_2023.7/bin/../lib/gcc/arm-none-eabi/12.2.1/thumb/v8-m.main+fp/hard/crtbegin.o

.ARM.extab
 *(.ARM.extab* .gnu.linkonce.armextab.*)
                0x0800b6e0                __exidx_start = .

.ARM.exidx      0x0800b6e0        0x8
 *(.ARM.exidx* .gnu.linkonce.armexidx.*)
 .ARM.exidx     0x0800b6e0        0x8 c:/siliconlabs/simplicitystudio/v5/developer/toolchains/gnu_arm/12.2.rel1_2023.7/bin/../lib/gcc/arm-none-eabi/12.2.1/thumb/v8-m.main+fp/hard/crt0.o
                                 0x10 (size before relaxing)
 .ARM.exidx.text.__udivmoddi4
                0x0800b6e8        0x0 c:/siliconlabs/simplicitystudio/v5/developer/toolchains/gnu_arm/12.2.rel1_2023.7/bin/../lib/gcc/arm-none-eabi/12.2.1/thumb/v8-m.main+fp/hard\libgcc.a(_udivmoddi4.o)
                                  0x8 (size before relaxing)
                0x0800b6e8                __exidx_end = .

.rel.dyn        0x0800b6e8        0x0
 .rel.iplt      0x0800b6e8        0x0 c:/siliconlabs/simplicitystudio/v5/developer/toolchains/gnu_arm/12.2.rel1_2023.7/bin/../lib/gcc/arm-none-eabi/12.2.1/thumb/v8-m.main+fp/hard/crtbegin.o

.copy.table     0x0800b6e8        0xc
                0x0800b6e8                . = ALIGN (0x4)
                0x0800b6e8                __copy_table_start__ = .
                0x0800b6e8        0x4 LONG 0x800b6f4 __etext
                0x0800b6ec        0x4 LONG 0x20001000 __data_start__
                0x0800b6f0        0x4 LONG 0x3e ((__data_end__ - __data_start__) / 0x4)
                0x0800b6f4                __copy_table_end__ = .

.zero.table     0x0800b6f4        0x0
                0x0800b6f4                . = ALIGN (0x4)
                0x0800b6f4                __zero_table_start__ = .
                0x0800b6f4                __zero_table_end__ = .
                0x0800b6f4                __etext = .
                0x20000000                . = ORIGIN (RAM)

.stack          0x20000000     0x1000
                0x20000000                __StackLimit = .
 *(.stack*)
 .stack         0x20000000     0x1000 ./gecko_sdk_4.4.3/platform/common/toolchain/src/sl_memory.o
                0x20001000                . = ALIGN (0x4)
                0x20001000                __StackTop = .
                0x20001000                PROVIDE (__stack = __StackTop)

.noinit
 *(.noinit*)

.data           0x20001000       0xf8 load address 0x0800b6f4
                0x20001000                . = ALIGN (0x4)
                0x20001000                __data_start__ = .
 *(vtable)
 *(SORT_BY_ALIGNMENT(.data*))
 .data.init_scan_table
                0x20001000       0x50 ./iadc.o
                0x20001000                init_scan_table
 .data.sl_i2cspm_sensor
                0x20001050        0x4 ./autogen/sl_i2cspm_init.o
                0x20001050                sl_i2cspm_sensor
 .data.init_sensor
                0x20001054       0x14 ./autogen/sl_i2cspm_init.o
                0x20001054                init_sensor
 .data.SystemHFXOClock
                0x20001068        0x4 ./gecko_sdk_4.4.3/platform/Device/SiliconLabs/EFR32MG24/Source/system_efr32mg24.o
 .data.SystemLFXOClock
                0x2000106c        0x4 ./gecko_sdk_4.4.3/platform/Device/SiliconLabs/EFR32MG24/Source/system_efr32mg24.o
 .data.SystemHFRCODPLLClock
                0x20001070        0x4 ./gecko_sdk_4.4.3/platform/Device/SiliconLabs/EFR32MG24/Source/system_efr32mg24.o
 .data.SystemCoreClock
                0x20001074        0x4 ./gecko_sdk_4.4.3/platform/Device/SiliconLabs/EFR32MG24/Source/system_efr32mg24.o
                0x20001074                SystemCoreClock
 .data.heap_end.0
                0x20001078        0x4 ./gecko_sdk_4.4.3/platform/common/toolchain/src/sl_memory.o
 .data.event_info
                0x2000107c        0x8 ./gecko_sdk_4.4.3/platform/service/iostream/src/sl_iostream_swo_itm_8.o
 .data.__sglue  0x20001084        0xc c:/siliconlabs/simplicitystudio/v5/developer/toolchains/gnu_arm/12.2.rel1_2023.7/bin/../lib/gcc/arm-none-eabi/12.2.1/thumb/v8-m.main+fp/hard\libc_nano.a(libc_a-findfp.o)
                0x20001084                __sglue
 .data._impure_ptr
                0x20001090        0x4 c:/siliconlabs/simplicitystudio/v5/developer/toolchains/gnu_arm/12.2.rel1_2023.7/bin/../lib/gcc/arm-none-eabi/12.2.1/thumb/v8-m.main+fp/hard\libc_nano.a(libc_a-impure.o)
                0x20001090                _impure_ptr
 .data._impure_data
                0x20001094       0x4c c:/siliconlabs/simplicitystudio/v5/developer/toolchains/gnu_arm/12.2.rel1_2023.7/bin/../lib/gcc/arm-none-eabi/12.2.1/thumb/v8-m.main+fp/hard\libc_nano.a(libc_a-impure.o)
                0x20001094                _impure_data
 .data.lfxo_precision
                0x200010e0        0x2 ./gecko_sdk_4.4.3/platform/emlib/src/em_cmu.o
 .data.hfxo_precision
                0x200010e2        0x2 ./gecko_sdk_4.4.3/platform/emlib/src/em_cmu.o
 .data.debug_type
                0x200010e4        0x2 ./gecko_sdk_4.4.3/platform/service/iostream/src/sl_iostream_debug.o
 .data.level_filter_enabled
                0x200010e6        0x1 ./gecko_sdk_4.4.3/app/common/util/app_log/app_log.o
 .data.level_filter_threshold
                0x200010e7        0x1 ./gecko_sdk_4.4.3/app/common/util/app_log/app_log.o
 .data.level_mask
                0x200010e8        0x1 ./gecko_sdk_4.4.3/app/common/util/app_log/app_log.o
 .data.ctuneDelta
                0x200010e9        0x1 ./gecko_sdk_4.4.3/platform/emlib/src/em_cmu.o
 .data.is_fast_wakeup_enabled
                0x200010ea        0x1 ./gecko_sdk_4.4.3/platform/service/power_manager/src/sl_power_manager_hal_s2.o
 .data.cc_disabled
                0x200010eb        0x1 ./gecko_sdk_4.4.3/platform/service/sleeptimer/src/sl_sleeptimer_hal_sysrtc.o
 .data.cc1_disabled
                0x200010ec        0x1 ./gecko_sdk_4.4.3/platform/service/sleeptimer/src/sl_sleeptimer_hal_sysrtc.o
                0x200010f0                . = ALIGN (0x4)
 *fill*         0x200010ed        0x3 
                [!provide]                PROVIDE (__ram_func_section_start = .)
 *(.ram)
                [!provide]                PROVIDE (__ram_func_section_end = .)
                0x200010f0                . = ALIGN (0x4)
                0x200010f0                PROVIDE (__preinit_array_start = .)
 *(.preinit_array)
                0x200010f0                PROVIDE (__preinit_array_end = .)
                0x200010f0                . = ALIGN (0x4)
                0x200010f0                PROVIDE (__init_array_start = .)
 *(SORT_BY_NAME(.init_array.*))
 *(.init_array)
 .init_array    0x200010f0        0x4 c:/siliconlabs/simplicitystudio/v5/developer/toolchains/gnu_arm/12.2.rel1_2023.7/bin/../lib/gcc/arm-none-eabi/12.2.1/thumb/v8-m.main+fp/hard/crtbegin.o
                0x200010f4                PROVIDE (__init_array_end = .)
                0x200010f4                . = ALIGN (0x4)
                [!provide]                PROVIDE (__fini_array_start = .)
 *(SORT_BY_NAME(.fini_array.*))
 *(.fini_array)
 .fini_array    0x200010f4        0x4 c:/siliconlabs/simplicitystudio/v5/developer/toolchains/gnu_arm/12.2.rel1_2023.7/bin/../lib/gcc/arm-none-eabi/12.2.1/thumb/v8-m.main+fp/hard/crtbegin.o
                [!provide]                PROVIDE (__fini_array_end = .)
                0x200010f8                . = ALIGN (0x4)
                0x200010f8                __data_end__ = .

.tm_clone_table
                0x200010f8        0x0 load address 0x0800b7ec
 .tm_clone_table
                0x200010f8        0x0 c:/siliconlabs/simplicitystudio/v5/developer/toolchains/gnu_arm/12.2.rel1_2023.7/bin/../lib/gcc/arm-none-eabi/12.2.1/thumb/v8-m.main+fp/hard/crtbegin.o
 .tm_clone_table
                0x200010f8        0x0 c:/siliconlabs/simplicitystudio/v5/developer/toolchains/gnu_arm/12.2.rel1_2023.7/bin/../lib/gcc/arm-none-eabi/12.2.1/thumb/v8-m.main+fp/hard/crtend.o

.igot.plt       0x200010f8        0x0 load address 0x0800b7ec
 .igot.plt      0x200010f8        0x0 c:/siliconlabs/simplicitystudio/v5/developer/toolchains/gnu_arm/12.2.rel1_2023.7/bin/../lib/gcc/arm-none-eabi/12.2.1/thumb/v8-m.main+fp/hard/crtbegin.o

.bss            0x200010f8      0x274 load address 0x0800b7ec
                0x200010f8                . = ALIGN (0x4)
                0x200010f8                __bss_start__ = .
 *(SORT_BY_ALIGNMENT(.bss*))
 .bss.object.0  0x200010f8       0x18 c:/siliconlabs/simplicitystudio/v5/developer/toolchains/gnu_arm/12.2.rel1_2023.7/bin/../lib/gcc/arm-none-eabi/12.2.1/thumb/v8-m.main+fp/hard/crtbegin.o
 .bss.analog_input
                0x20001110        0x8 ./app.o
                0x20001110                analog_input
 .bss.sensorData
                0x20001118        0x8 ./app.o
                0x20001118                sensorData
 .bss.scan_result
                0x20001120       0x10 ./iadc.o
                0x20001120                scan_result
 .bss.app_log_iostream
                0x20001130        0x4 ./gecko_sdk_4.4.3/app/common/util/app_log/app_log.o
                0x20001130                app_log_iostream
 .bss.trigger_count
                0x20001134        0x4 ./gecko_sdk_4.4.3/app/common/util/app_timer/app_timer.o
 .bss.app_timer_head
                0x20001138        0x4 ./gecko_sdk_4.4.3/app/common/util/app_timer/app_timer.o
 .bss.vScaleEM01Config
                0x2000113c        0x1 ./gecko_sdk_4.4.3/platform/emlib/src/em_emu.o
 *fill*         0x2000113d        0x3 
 .bss.i2cTransfer
                0x20001140       0x18 ./gecko_sdk_4.4.3/platform/emlib/src/em_i2c.o
 .bss.hfxo_startup_time_tick
                0x20001158        0x4 ./gecko_sdk_4.4.3/platform/service/hfxo_manager/src/sl_hfxo_manager.o
 .bss.hfxo_last_startup_time
                0x2000115c        0x4 ./gecko_sdk_4.4.3/platform/service/hfxo_manager/src/sl_hfxo_manager.o
 .bss.hfxo_startup_time_table
                0x20001160       0x28 ./gecko_sdk_4.4.3/platform/service/hfxo_manager/src/sl_hfxo_manager.o
 .bss.hfxo_startup_time_sum_average
                0x20001188        0x4 ./gecko_sdk_4.4.3/platform/service/hfxo_manager/src/sl_hfxo_manager.o
 .bss.hfxo_startup_time_tc_initial
                0x2000118c        0x4 ./gecko_sdk_4.4.3/platform/service/hfxo_manager/src/sl_hfxo_manager.o
 .bss.sli_iostream_default
                0x20001190        0x4 ./gecko_sdk_4.4.3/platform/service/iostream/src/sl_iostream.o
 .bss.sl_iostream_debug
                0x20001194        0xc ./gecko_sdk_4.4.3/platform/service/iostream/src/sl_iostream_debug.o
 .bss.swo_itm_initialized
                0x200011a0        0x4 ./gecko_sdk_4.4.3/platform/service/iostream/src/sl_iostream_swo_itm_8.o
 .bss.event_handle
                0x200011a4        0x8 ./gecko_sdk_4.4.3/platform/service/iostream/src/sl_iostream_swo_itm_8.o
 .bss.power_manager_em_transition_event_list
                0x200011ac        0x4 ./gecko_sdk_4.4.3/platform/service/power_manager/src/sl_power_manager.o
 .bss.sleeptimer_frequency
                0x200011b0        0x4 ./gecko_sdk_4.4.3/platform/service/power_manager/src/sl_power_manager.o
 .bss.requirement_em_table
                0x200011b4        0x2 ./gecko_sdk_4.4.3/platform/service/power_manager/src/sl_power_manager.o
 *fill*         0x200011b6        0x2 
 .bss.clock_wakeup_timer_handle
                0x200011b8       0x20 ./gecko_sdk_4.4.3/platform/service/power_manager/src/sl_power_manager.o
 .bss.high_frequency_min_offtime_tick
                0x200011d8        0x4 ./gecko_sdk_4.4.3/platform/service/power_manager/src/sl_power_manager.o
                0x200011d8                high_frequency_min_offtime_tick
 .bss.wakeup_time_config_overhead_tick
                0x200011dc        0x4 ./gecko_sdk_4.4.3/platform/service/power_manager/src/sl_power_manager.o
                0x200011dc                wakeup_time_config_overhead_tick
 .bss.cmu_em01_grpA_clock_register
                0x200011e0        0x4 ./gecko_sdk_4.4.3/platform/service/power_manager/src/sl_power_manager_hal_s2.o
                0x200011e0                cmu_em01_grpA_clock_register
 .bss.cmu_em01_grpC_clock_register
                0x200011e4        0x4 ./gecko_sdk_4.4.3/platform/service/power_manager/src/sl_power_manager_hal_s2.o
                0x200011e4                cmu_em01_grpC_clock_register
 .bss.cmu_dpll_ref_clock_register
                0x200011e8        0x4 ./gecko_sdk_4.4.3/platform/service/power_manager/src/sl_power_manager_hal_s2.o
                0x200011e8                cmu_dpll_ref_clock_register
 .bss.cmu_sys_clock_register
                0x200011ec        0x4 ./gecko_sdk_4.4.3/platform/service/power_manager/src/sl_power_manager_hal_s2.o
                0x200011ec                cmu_sys_clock_register
 .bss.process_wakeup_overhead_tick
                0x200011f0        0x4 ./gecko_sdk_4.4.3/platform/service/power_manager/src/sl_power_manager_hal_s2.o
 .bss.timer_frequency
                0x200011f4        0x4 ./gecko_sdk_4.4.3/platform/service/sleeptimer/src/sl_sleeptimer.o
 .bss.timer_head
                0x200011f8        0x4 ./gecko_sdk_4.4.3/platform/service/sleeptimer/src/sl_sleeptimer.o
 .bss.last_delta_update_count
                0x200011fc        0x4 ./gecko_sdk_4.4.3/platform/service/sleeptimer/src/sl_sleeptimer.o
 .bss.max_millisecond_conversion
                0x20001200        0x4 ./gecko_sdk_4.4.3/platform/service/sleeptimer/src/sl_sleeptimer.o
 .bss.__sf      0x20001204      0x138 c:/siliconlabs/simplicitystudio/v5/developer/toolchains/gnu_arm/12.2.rel1_2023.7/bin/../lib/gcc/arm-none-eabi/12.2.1/thumb/v8-m.main+fp/hard\libc_nano.a(libc_a-findfp.o)
                0x20001204                __sf
 .bss.__stdio_exit_handler
                0x2000133c        0x4 c:/siliconlabs/simplicitystudio/v5/developer/toolchains/gnu_arm/12.2.rel1_2023.7/bin/../lib/gcc/arm-none-eabi/12.2.1/thumb/v8-m.main+fp/hard\libc_nano.a(libc_a-findfp.o)
                0x2000133c                __stdio_exit_handler
 .bss.errno     0x20001340        0x4 c:/siliconlabs/simplicitystudio/v5/developer/toolchains/gnu_arm/12.2.rel1_2023.7/bin/../lib/gcc/arm-none-eabi/12.2.1/thumb/v8-m.main+fp/hard\libc_nano.a(libc_a-reent.o)
                0x20001340                errno
 .bss.__malloc_sbrk_start
                0x20001344        0x4 c:/siliconlabs/simplicitystudio/v5/developer/toolchains/gnu_arm/12.2.rel1_2023.7/bin/../lib/gcc/arm-none-eabi/12.2.1/thumb/v8-m.main+fp/hard\libc_nano.a(libc_a-mallocr.o)
                0x20001344                __malloc_sbrk_start
 .bss.__malloc_free_list
                0x20001348        0x4 c:/siliconlabs/simplicitystudio/v5/developer/toolchains/gnu_arm/12.2.rel1_2023.7/bin/../lib/gcc/arm-none-eabi/12.2.1/thumb/v8-m.main+fp/hard\libc_nano.a(libc_a-mallocr.o)
                0x20001348                __malloc_free_list
 .bss.overflow_counter
                0x2000134c        0x2 ./gecko_sdk_4.4.3/platform/service/sleeptimer/src/sl_sleeptimer.o
 .bss.completed.1
                0x2000134e        0x1 c:/siliconlabs/simplicitystudio/v5/developer/toolchains/gnu_arm/12.2.rel1_2023.7/bin/../lib/gcc/arm-none-eabi/12.2.1/thumb/v8-m.main+fp/hard/crtbegin.o
 .bss.num_current_input
                0x2000134f        0x1 ./iadc.o
 .bss.scan_flag
                0x20001350        0x1 ./iadc.o
                0x20001350                scan_flag
 .bss.initialized
                0x20001351        0x1 ./gecko_sdk_4.4.3/app/bluetooth/common/sensor_rht/sl_sensor_rht.o
 .bss.level_mask_enabled
                0x20001352        0x1 ./gecko_sdk_4.4.3/app/common/util/app_log/app_log.o
 .bss.hfxo_startup_time_table_index
                0x20001353        0x1 ./gecko_sdk_4.4.3/platform/service/hfxo_manager/src/sl_hfxo_manager.o
 .bss.hfxo_measurement_on
                0x20001354        0x1 ./gecko_sdk_4.4.3/platform/service/hfxo_manager/src/sl_hfxo_manager.o
 .bss.error_flag
                0x20001355        0x1 ./gecko_sdk_4.4.3/platform/service/hfxo_manager/src/sl_hfxo_manager_hal_s2.o
 .bss.seq_number
                0x20001356        0x1 ./gecko_sdk_4.4.3/platform/service/iostream/src/sl_iostream_debug.o
 .bss.is_initialized
                0x20001357        0x1 ./gecko_sdk_4.4.3/platform/service/power_manager/src/sl_power_manager.o
 .bss.current_em
                0x20001358        0x1 ./gecko_sdk_4.4.3/platform/service/power_manager/src/sl_power_manager.o
 .bss.requirement_high_accuracy_hf_clock_counter
                0x20001359        0x1 ./gecko_sdk_4.4.3/platform/service/power_manager/src/sl_power_manager.o
                0x20001359                requirement_high_accuracy_hf_clock_counter
 .bss.requirement_high_accuracy_hf_clock_back_to_zero
                0x2000135a        0x1 ./gecko_sdk_4.4.3/platform/service/power_manager/src/sl_power_manager.o
                0x2000135a                requirement_high_accuracy_hf_clock_back_to_zero
 .bss.waiting_clock_restore_from_em
                0x2000135b        0x1 ./gecko_sdk_4.4.3/platform/service/power_manager/src/sl_power_manager.o
 .bss.is_sleeping_waiting_for_clock_restore
                0x2000135c        0x1 ./gecko_sdk_4.4.3/platform/service/power_manager/src/sl_power_manager.o
 .bss.is_states_saved
                0x2000135d        0x1 ./gecko_sdk_4.4.3/platform/service/power_manager/src/sl_power_manager.o
 .bss.requirement_on_em1_added
                0x2000135e        0x1 ./gecko_sdk_4.4.3/platform/service/power_manager/src/sl_power_manager.o
 .bss.is_hf_x_oscillator_not_preserved
                0x2000135f        0x1 ./gecko_sdk_4.4.3/platform/service/power_manager/src/sl_power_manager.o
 .bss.is_actively_waiting_for_clock_restore
                0x20001360        0x1 ./gecko_sdk_4.4.3/platform/service/power_manager/src/sl_power_manager.o
 .bss.is_restored_from_hfxo_isr
                0x20001361        0x1 ./gecko_sdk_4.4.3/platform/service/power_manager/src/sl_power_manager.o
 .bss.is_restored_from_hfxo_isr_internal
                0x20001362        0x1 ./gecko_sdk_4.4.3/platform/service/power_manager/src/sl_power_manager.o
 .bss.is_hf_x_oscillator_used
                0x20001363        0x1 ./gecko_sdk_4.4.3/platform/service/power_manager/src/sl_power_manager_hal_s2.o
 .bss.is_dpll_used
                0x20001364        0x1 ./gecko_sdk_4.4.3/platform/service/power_manager/src/sl_power_manager_hal_s2.o
 .bss.is_entering_deepsleep
                0x20001365        0x1 ./gecko_sdk_4.4.3/platform/service/power_manager/src/sl_power_manager_hal_s2.o
 .bss.is_hf_x_oscillator_already_started
                0x20001366        0x1 ./gecko_sdk_4.4.3/platform/service/power_manager/src/sl_power_manager_hal_s2.o
 .bss.is_sleeptimer_initialized
                0x20001367        0x1 ./gecko_sdk_4.4.3/platform/service/sleeptimer/src/sl_sleeptimer.o
 .bss.next_timer_to_expire_is_power_manager
                0x20001368        0x1 ./gecko_sdk_4.4.3/platform/service/sleeptimer/src/sl_sleeptimer.o
 .bss.sleep_on_isr_exit
                0x20001369        0x1 ./gecko_sdk_4.4.3/platform/service/sleeptimer/src/sl_sleeptimer.o
 .bss.__lock___malloc_recursive_mutex
                0x2000136a        0x1 c:/siliconlabs/simplicitystudio/v5/developer/toolchains/gnu_arm/12.2.rel1_2023.7/bin/../lib/gcc/arm-none-eabi/12.2.1/thumb/v8-m.main+fp/hard\libc_nano.a(libc_a-lock.o)
                0x2000136a                __lock___malloc_recursive_mutex
 .bss.__lock___sfp_recursive_mutex
                0x2000136b        0x1 c:/siliconlabs/simplicitystudio/v5/developer/toolchains/gnu_arm/12.2.rel1_2023.7/bin/../lib/gcc/arm-none-eabi/12.2.1/thumb/v8-m.main+fp/hard\libc_nano.a(libc_a-lock.o)
                0x2000136b                __lock___sfp_recursive_mutex
 *(COMMON)
                0x2000136c                . = ALIGN (0x4)
                0x2000136c                __bss_end__ = .
                0x2000136c                __ramfuncs_start__ = .
                0x2000136c                __vma_ramfuncs_start__ = .
                0x0800b7ec                __lma_ramfuncs_start__ = (__etext + SIZEOF (.data))
                0x00000000                __text_application_ram_offset__ = (. - __vma_ramfuncs_start__)

text_application_ram
                0x2000136c        0x0 load address 0x0800b7ec
                0x2000136c                . = ALIGN (0x4)
                0x2000136c                __text_application_ram_start__ = .
 *(text_application_ram)
                0x2000136c                . = ALIGN (0x4)
                0x2000136c                __text_application_ram_end__ = .
                0x2000136c                . = ALIGN (0x4)
                0x2000136c                __vma_ramfuncs_end__ = .
                0x0800b7ec                __lma_ramfuncs_end__ = ((__lma_ramfuncs_start__ + __text_application_ram_offset__) + SIZEOF (text_application_ram))
                0x2000136c                __ramfuncs_end__ = .

.heap           0x20001370      0x800
                0x20001370                __HeapBase = .
                0x20001370                __end__ = .
                0x20001370                end = __end__
                0x20001370                _end = __end__
 *(.heap*)
 .heap          0x20001370      0x800 ./gecko_sdk_4.4.3/platform/common/toolchain/src/sl_memory.o
                0x20040000                __HeapLimit = (ORIGIN (RAM) + LENGTH (RAM))
                0x0003ec90                __heap_size = (__HeapLimit - __HeapBase)
                0x20040000                __ram_end__ = 0x20040000
                0x0817e000                __main_flash_end__ = 0x817e000

.internal_storage
 *(.internal_storage*)

.nvm
 *(.simee*)
                0x0817e000                linker_nvm_end = __main_flash_end__
                0x0817e000                linker_nvm_begin = (linker_nvm_end - SIZEOF (.nvm))
                0x00000000                linker_nvm_size = SIZEOF (.nvm)
                0x0817e000                linker_storage_end = linker_nvm_begin
                0x0817e000                __nvm3Base = linker_nvm_begin
                0x0817e000                linker_storage_begin = (linker_storage_end - SIZEOF (.internal_storage))
                0x00000000                linker_storage_size = SIZEOF (.internal_storage)
                0x00000001                ASSERT ((linker_storage_begin >= (__etext + SIZEOF (.data))), FLASH memory overflowed !)
                0x0817e000                app_flash_end = 0x817e000
                0x00000001                ASSERT (((linker_nvm_begin + SIZEOF (.nvm)) <= app_flash_end), NVM3 is excessing the flash size !)
OUTPUT(peripheral_examples.axf elf32-littlearm)
LOAD linker stubs

.ARM.attributes
                0x00000000       0x36
 .ARM.attributes
                0x00000000       0x26 c:/siliconlabs/simplicitystudio/v5/developer/toolchains/gnu_arm/12.2.rel1_2023.7/bin/../lib/gcc/arm-none-eabi/12.2.1/thumb/v8-m.main+fp/hard/crti.o
 .ARM.attributes
                0x00000026       0x38 c:/siliconlabs/simplicitystudio/v5/developer/toolchains/gnu_arm/12.2.rel1_2023.7/bin/../lib/gcc/arm-none-eabi/12.2.1/thumb/v8-m.main+fp/hard/crtbegin.o
 .ARM.attributes
                0x0000005e       0x24 c:/siliconlabs/simplicitystudio/v5/developer/toolchains/gnu_arm/12.2.rel1_2023.7/bin/../lib/gcc/arm-none-eabi/12.2.1/thumb/v8-m.main+fp/hard/crt0.o
 .ARM.attributes
                0x00000082       0x3a ./app.o
 .ARM.attributes
                0x000000bc       0x3a ./iadc.o
 .ARM.attributes
                0x000000f6       0x3a ./main.o
 .ARM.attributes
                0x00000130       0x3a ./thermometer.o
 .ARM.attributes
                0x0000016a       0x3a ./autogen/sl_board_default_init.o
 .ARM.attributes
                0x000001a4       0x3a ./autogen/sl_device_init_clocks.o
 .ARM.attributes
                0x000001de       0x3a ./autogen/sl_event_handler.o
 .ARM.attributes
                0x00000218       0x3a ./autogen/sl_i2cspm_init.o
 .ARM.attributes
                0x00000252       0x3a ./autogen/sl_power_manager_handler.o
 .ARM.attributes
                0x0000028c       0x3a ./gecko_sdk_4.4.3/app/bluetooth/common/sensor_rht/sl_sensor_rht.o
 .ARM.attributes
                0x000002c6       0x3a ./gecko_sdk_4.4.3/app/bluetooth/common/sensor_select/sl_sensor_select.o
 .ARM.attributes
                0x00000300       0x3a ./gecko_sdk_4.4.3/app/common/util/app_log/app_log.o
 .ARM.attributes
                0x0000033a       0x3a ./gecko_sdk_4.4.3/app/common/util/app_timer/app_timer.o
 .ARM.attributes
                0x00000374       0x3a ./gecko_sdk_4.4.3/hardware/board/src/sl_board_control_gpio.o
 .ARM.attributes
                0x000003ae       0x3a ./gecko_sdk_4.4.3/hardware/board/src/sl_board_init.o
 .ARM.attributes
                0x000003e8       0x3a ./gecko_sdk_4.4.3/hardware/driver/mx25_flash_shutdown/src/sl_mx25_flash_shutdown_usart/sl_mx25_flash_shutdown.o
 .ARM.attributes
                0x00000422       0x3a ./gecko_sdk_4.4.3/hardware/driver/si70xx/src/sl_si70xx.o
 .ARM.attributes
                0x0000045c       0x3a ./gecko_sdk_4.4.3/platform/Device/SiliconLabs/EFR32MG24/Source/startup_efr32mg24.o
 .ARM.attributes
                0x00000496       0x3a ./gecko_sdk_4.4.3/platform/Device/SiliconLabs/EFR32MG24/Source/system_efr32mg24.o
 .ARM.attributes
                0x000004d0       0x3a ./gecko_sdk_4.4.3/platform/common/src/sl_assert.o
 .ARM.attributes
                0x0000050a       0x3a ./gecko_sdk_4.4.3/platform/common/src/sl_slist.o
 .ARM.attributes
                0x00000544       0x3a ./gecko_sdk_4.4.3/platform/common/toolchain/src/sl_memory.o
 .ARM.attributes
                0x0000057e       0x3a ./gecko_sdk_4.4.3/platform/driver/debug/src/sl_debug_swo.o
 .ARM.attributes
                0x000005b8       0x3a ./gecko_sdk_4.4.3/platform/driver/i2cspm/src/sl_i2cspm.o
 .ARM.attributes
                0x000005f2       0x3a ./gecko_sdk_4.4.3/platform/emlib/src/em_cmu.o
 .ARM.attributes
                0x0000062c       0x3a ./gecko_sdk_4.4.3/platform/emlib/src/em_core.o
 .ARM.attributes
                0x00000666       0x3a ./gecko_sdk_4.4.3/platform/emlib/src/em_emu.o
 .ARM.attributes
                0x000006a0       0x3a ./gecko_sdk_4.4.3/platform/emlib/src/em_gpio.o
 .ARM.attributes
                0x000006da       0x3a ./gecko_sdk_4.4.3/platform/emlib/src/em_i2c.o
 .ARM.attributes
                0x00000714       0x3a ./gecko_sdk_4.4.3/platform/emlib/src/em_iadc.o
 .ARM.attributes
                0x0000074e       0x3a ./gecko_sdk_4.4.3/platform/emlib/src/em_prs.o
 .ARM.attributes
                0x00000788       0x3a ./gecko_sdk_4.4.3/platform/emlib/src/em_system.o
 .ARM.attributes
                0x000007c2       0x3a ./gecko_sdk_4.4.3/platform/emlib/src/em_usart.o
 .ARM.attributes
                0x000007fc       0x3a ./gecko_sdk_4.4.3/platform/peripheral/src/peripheral_sysrtc.o
 .ARM.attributes
                0x00000836       0x3a ./gecko_sdk_4.4.3/platform/service/device_init/src/sl_device_init_dcdc_s2.o
 .ARM.attributes
                0x00000870       0x3a ./gecko_sdk_4.4.3/platform/service/device_init/src/sl_device_init_emu_s2.o
 .ARM.attributes
                0x000008aa       0x3a ./gecko_sdk_4.4.3/platform/service/device_init/src/sl_device_init_hfxo_s2.o
 .ARM.attributes
                0x000008e4       0x3a ./gecko_sdk_4.4.3/platform/service/device_init/src/sl_device_init_lfxo_s2.o
 .ARM.attributes
                0x0000091e       0x3a ./gecko_sdk_4.4.3/platform/service/device_init/src/sl_device_init_nvic.o
 .ARM.attributes
                0x00000958       0x3a ./gecko_sdk_4.4.3/platform/service/hfxo_manager/src/sl_hfxo_manager.o
 .ARM.attributes
                0x00000992       0x3a ./gecko_sdk_4.4.3/platform/service/hfxo_manager/src/sl_hfxo_manager_hal_s2.o
 .ARM.attributes
                0x000009cc       0x3a ./gecko_sdk_4.4.3/platform/service/iostream/src/sl_iostream.o
 .ARM.attributes
                0x00000a06       0x3a ./gecko_sdk_4.4.3/platform/service/iostream/src/sl_iostream_debug.o
 .ARM.attributes
                0x00000a40       0x3a ./gecko_sdk_4.4.3/platform/service/iostream/src/sl_iostream_retarget_stdio.o
 .ARM.attributes
                0x00000a7a       0x3a ./gecko_sdk_4.4.3/platform/service/iostream/src/sl_iostream_stdlib_config.o
 .ARM.attributes
                0x00000ab4       0x3a ./gecko_sdk_4.4.3/platform/service/iostream/src/sl_iostream_swo_itm_8.o
 .ARM.attributes
                0x00000aee       0x3a ./gecko_sdk_4.4.3/platform/service/power_manager/src/sl_power_manager.o
 .ARM.attributes
                0x00000b28       0x3a ./gecko_sdk_4.4.3/platform/service/power_manager/src/sl_power_manager_hal_s2.o
 .ARM.attributes
                0x00000b62       0x3a ./gecko_sdk_4.4.3/platform/service/sleeptimer/src/sl_sleeptimer.o
 .ARM.attributes
                0x00000b9c       0x3a ./gecko_sdk_4.4.3/platform/service/sleeptimer/src/sl_sleeptimer_hal_sysrtc.o
 .ARM.attributes
                0x00000bd6       0x3a ./gecko_sdk_4.4.3/platform/service/system/src/sl_system_init.o
 .ARM.attributes
                0x00000c10       0x3a ./gecko_sdk_4.4.3/platform/service/system/src/sl_system_process_action.o
 .ARM.attributes
                0x00000c4a       0x3a ./gecko_sdk_4.4.3/platform/service/udelay/src/sl_udelay.o
 .ARM.attributes
                0x00000c84       0x26 ./gecko_sdk_4.4.3/platform/service/udelay/src/sl_udelay_armv6m_gcc.o
 .ARM.attributes
                0x00000caa       0x26 c:/siliconlabs/simplicitystudio/v5/developer/toolchains/gnu_arm/12.2.rel1_2023.7/bin/../lib/gcc/arm-none-eabi/12.2.1/thumb/v8-m.main+fp/hard\libgcc.a(_aeabi_uldivmod.o)
 .ARM.attributes
                0x00000cd0       0x38 c:/siliconlabs/simplicitystudio/v5/developer/toolchains/gnu_arm/12.2.rel1_2023.7/bin/../lib/gcc/arm-none-eabi/12.2.1/thumb/v8-m.main+fp/hard\libgcc.a(_udivmoddi4.o)
 .ARM.attributes
                0x00000d08       0x26 c:/siliconlabs/simplicitystudio/v5/developer/toolchains/gnu_arm/12.2.rel1_2023.7/bin/../lib/gcc/arm-none-eabi/12.2.1/thumb/v8-m.main+fp/hard\libgcc.a(_dvmd_tls.o)
 .ARM.attributes
                0x00000d2e       0x38 c:/siliconlabs/simplicitystudio/v5/developer/toolchains/gnu_arm/12.2.rel1_2023.7/bin/../lib/gcc/arm-none-eabi/12.2.1/thumb/v8-m.main+fp/hard\libc_nano.a(libc_a-exit.o)
 .ARM.attributes
                0x00000d66       0x38 c:/siliconlabs/simplicitystudio/v5/developer/toolchains/gnu_arm/12.2.rel1_2023.7/bin/../lib/gcc/arm-none-eabi/12.2.1/thumb/v8-m.main+fp/hard\libc_nano.a(libc_a-findfp.o)
 .ARM.attributes
                0x00000d9e       0x38 c:/siliconlabs/simplicitystudio/v5/developer/toolchains/gnu_arm/12.2.rel1_2023.7/bin/../lib/gcc/arm-none-eabi/12.2.1/thumb/v8-m.main+fp/hard\libc_nano.a(libc_a-fwalk.o)
 .ARM.attributes
                0x00000dd6       0x38 c:/siliconlabs/simplicitystudio/v5/developer/toolchains/gnu_arm/12.2.rel1_2023.7/bin/../lib/gcc/arm-none-eabi/12.2.1/thumb/v8-m.main+fp/hard\libc_nano.a(libc_a-setvbuf.o)
 .ARM.attributes
                0x00000e0e       0x38 c:/siliconlabs/simplicitystudio/v5/developer/toolchains/gnu_arm/12.2.rel1_2023.7/bin/../lib/gcc/arm-none-eabi/12.2.1/thumb/v8-m.main+fp/hard\libc_nano.a(libc_a-stdio.o)
 .ARM.attributes
                0x00000e46       0x38 c:/siliconlabs/simplicitystudio/v5/developer/toolchains/gnu_arm/12.2.rel1_2023.7/bin/../lib/gcc/arm-none-eabi/12.2.1/thumb/v8-m.main+fp/hard\libc_nano.a(libc_a-vprintf.o)
 .ARM.attributes
                0x00000e7e       0x38 c:/siliconlabs/simplicitystudio/v5/developer/toolchains/gnu_arm/12.2.rel1_2023.7/bin/../lib/gcc/arm-none-eabi/12.2.1/thumb/v8-m.main+fp/hard\libc_nano.a(libc_a-memset.o)
 .ARM.attributes
                0x00000eb6       0x38 c:/siliconlabs/simplicitystudio/v5/developer/toolchains/gnu_arm/12.2.rel1_2023.7/bin/../lib/gcc/arm-none-eabi/12.2.1/thumb/v8-m.main+fp/hard\libc_nano.a(libc_a-closer.o)
 .ARM.attributes
                0x00000eee       0x38 c:/siliconlabs/simplicitystudio/v5/developer/toolchains/gnu_arm/12.2.rel1_2023.7/bin/../lib/gcc/arm-none-eabi/12.2.1/thumb/v8-m.main+fp/hard\libc_nano.a(libc_a-reent.o)
 .ARM.attributes
                0x00000f26       0x38 c:/siliconlabs/simplicitystudio/v5/developer/toolchains/gnu_arm/12.2.rel1_2023.7/bin/../lib/gcc/arm-none-eabi/12.2.1/thumb/v8-m.main+fp/hard\libc_nano.a(libc_a-impure.o)
 .ARM.attributes
                0x00000f5e       0x38 c:/siliconlabs/simplicitystudio/v5/developer/toolchains/gnu_arm/12.2.rel1_2023.7/bin/../lib/gcc/arm-none-eabi/12.2.1/thumb/v8-m.main+fp/hard\libc_nano.a(libc_a-lseekr.o)
 .ARM.attributes
                0x00000f96       0x38 c:/siliconlabs/simplicitystudio/v5/developer/toolchains/gnu_arm/12.2.rel1_2023.7/bin/../lib/gcc/arm-none-eabi/12.2.1/thumb/v8-m.main+fp/hard\libc_nano.a(libc_a-readr.o)
 .ARM.attributes
                0x00000fce       0x38 c:/siliconlabs/simplicitystudio/v5/developer/toolchains/gnu_arm/12.2.rel1_2023.7/bin/../lib/gcc/arm-none-eabi/12.2.1/thumb/v8-m.main+fp/hard\libc_nano.a(libc_a-writer.o)
 .ARM.attributes
                0x00001006       0x38 c:/siliconlabs/simplicitystudio/v5/developer/toolchains/gnu_arm/12.2.rel1_2023.7/bin/../lib/gcc/arm-none-eabi/12.2.1/thumb/v8-m.main+fp/hard\libc_nano.a(libc_a-init.o)
 .ARM.attributes
                0x0000103e       0x38 c:/siliconlabs/simplicitystudio/v5/developer/toolchains/gnu_arm/12.2.rel1_2023.7/bin/../lib/gcc/arm-none-eabi/12.2.1/thumb/v8-m.main+fp/hard\libc_nano.a(libc_a-lock.o)
 .ARM.attributes
                0x00001076       0x38 c:/siliconlabs/simplicitystudio/v5/developer/toolchains/gnu_arm/12.2.rel1_2023.7/bin/../lib/gcc/arm-none-eabi/12.2.1/thumb/v8-m.main+fp/hard\libc_nano.a(libc_a-freer.o)
 .ARM.attributes
                0x000010ae       0x38 c:/siliconlabs/simplicitystudio/v5/developer/toolchains/gnu_arm/12.2.rel1_2023.7/bin/../lib/gcc/arm-none-eabi/12.2.1/thumb/v8-m.main+fp/hard\libc_nano.a(libc_a-malloc.o)
 .ARM.attributes
                0x000010e6       0x38 c:/siliconlabs/simplicitystudio/v5/developer/toolchains/gnu_arm/12.2.rel1_2023.7/bin/../lib/gcc/arm-none-eabi/12.2.1/thumb/v8-m.main+fp/hard\libc_nano.a(libc_a-mallocr.o)
 .ARM.attributes
                0x0000111e       0x38 c:/siliconlabs/simplicitystudio/v5/developer/toolchains/gnu_arm/12.2.rel1_2023.7/bin/../lib/gcc/arm-none-eabi/12.2.1/thumb/v8-m.main+fp/hard\libc_nano.a(libc_a-mlock.o)
 .ARM.attributes
                0x00001156       0x38 c:/siliconlabs/simplicitystudio/v5/developer/toolchains/gnu_arm/12.2.rel1_2023.7/bin/../lib/gcc/arm-none-eabi/12.2.1/thumb/v8-m.main+fp/hard\libc_nano.a(libc_a-nano-vfprintf.o)
 .ARM.attributes
                0x0000118e       0x38 c:/siliconlabs/simplicitystudio/v5/developer/toolchains/gnu_arm/12.2.rel1_2023.7/bin/../lib/gcc/arm-none-eabi/12.2.1/thumb/v8-m.main+fp/hard\libc_nano.a(libc_a-nano-vfprintf_i.o)
 .ARM.attributes
                0x000011c6       0x38 c:/siliconlabs/simplicitystudio/v5/developer/toolchains/gnu_arm/12.2.rel1_2023.7/bin/../lib/gcc/arm-none-eabi/12.2.1/thumb/v8-m.main+fp/hard\libc_nano.a(libc_a-fflush.o)
 .ARM.attributes
                0x000011fe       0x38 c:/siliconlabs/simplicitystudio/v5/developer/toolchains/gnu_arm/12.2.rel1_2023.7/bin/../lib/gcc/arm-none-eabi/12.2.1/thumb/v8-m.main+fp/hard\libc_nano.a(libc_a-makebuf.o)
 .ARM.attributes
                0x00001236       0x38 c:/siliconlabs/simplicitystudio/v5/developer/toolchains/gnu_arm/12.2.rel1_2023.7/bin/../lib/gcc/arm-none-eabi/12.2.1/thumb/v8-m.main+fp/hard\libc_nano.a(libc_a-wbuf.o)
 .ARM.attributes
                0x0000126e       0x38 c:/siliconlabs/simplicitystudio/v5/developer/toolchains/gnu_arm/12.2.rel1_2023.7/bin/../lib/gcc/arm-none-eabi/12.2.1/thumb/v8-m.main+fp/hard\libc_nano.a(libc_a-wsetup.o)
 .ARM.attributes
                0x000012a6       0x38 c:/siliconlabs/simplicitystudio/v5/developer/toolchains/gnu_arm/12.2.rel1_2023.7/bin/../lib/gcc/arm-none-eabi/12.2.1/thumb/v8-m.main+fp/hard\libc_nano.a(libc_a-fstatr.o)
 .ARM.attributes
                0x000012de       0x38 c:/siliconlabs/simplicitystudio/v5/developer/toolchains/gnu_arm/12.2.rel1_2023.7/bin/../lib/gcc/arm-none-eabi/12.2.1/thumb/v8-m.main+fp/hard\libc_nano.a(libc_a-isattyr.o)
 .ARM.attributes
                0x00001316       0x38 c:/siliconlabs/simplicitystudio/v5/developer/toolchains/gnu_arm/12.2.rel1_2023.7/bin/../lib/gcc/arm-none-eabi/12.2.1/thumb/v8-m.main+fp/hard\libc_nano.a(libc_a-sbrkr.o)
 .ARM.attributes
                0x0000134e       0x38 c:/siliconlabs/simplicitystudio/v5/developer/toolchains/gnu_arm/12.2.rel1_2023.7/bin/../lib/gcc/arm-none-eabi/12.2.1/thumb/v8-m.main+fp/hard\libc_nano.a(libc_a-memchr-stub.o)
 .ARM.attributes
                0x00001386       0x38 c:/siliconlabs/simplicitystudio/v5/developer/toolchains/gnu_arm/12.2.rel1_2023.7/bin/../lib/gcc/arm-none-eabi/12.2.1/thumb/v8-m.main+fp/hard/crtend.o
 .ARM.attributes
                0x000013be       0x26 c:/siliconlabs/simplicitystudio/v5/developer/toolchains/gnu_arm/12.2.rel1_2023.7/bin/../lib/gcc/arm-none-eabi/12.2.1/thumb/v8-m.main+fp/hard/crtn.o

.comment        0x00000000       0x45
 .comment       0x00000000       0x45 ./app.o
                                 0x46 (size before relaxing)
 .comment       0x00000045       0x46 ./iadc.o
 .comment       0x00000045       0x46 ./main.o
 .comment       0x00000045       0x46 ./thermometer.o
 .comment       0x00000045       0x46 ./autogen/sl_board_default_init.o
 .comment       0x00000045       0x46 ./autogen/sl_device_init_clocks.o
 .comment       0x00000045       0x46 ./autogen/sl_event_handler.o
 .comment       0x00000045       0x46 ./autogen/sl_i2cspm_init.o
 .comment       0x00000045       0x46 ./autogen/sl_power_manager_handler.o
 .comment       0x00000045       0x46 ./gecko_sdk_4.4.3/app/bluetooth/common/sensor_rht/sl_sensor_rht.o
 .comment       0x00000045       0x46 ./gecko_sdk_4.4.3/app/bluetooth/common/sensor_select/sl_sensor_select.o
 .comment       0x00000045       0x46 ./gecko_sdk_4.4.3/app/common/util/app_log/app_log.o
 .comment       0x00000045       0x46 ./gecko_sdk_4.4.3/app/common/util/app_timer/app_timer.o
 .comment       0x00000045       0x46 ./gecko_sdk_4.4.3/hardware/board/src/sl_board_control_gpio.o
 .comment       0x00000045       0x46 ./gecko_sdk_4.4.3/hardware/board/src/sl_board_init.o
 .comment       0x00000045       0x46 ./gecko_sdk_4.4.3/hardware/driver/mx25_flash_shutdown/src/sl_mx25_flash_shutdown_usart/sl_mx25_flash_shutdown.o
 .comment       0x00000045       0x46 ./gecko_sdk_4.4.3/hardware/driver/si70xx/src/sl_si70xx.o
 .comment       0x00000045       0x46 ./gecko_sdk_4.4.3/platform/Device/SiliconLabs/EFR32MG24/Source/startup_efr32mg24.o
 .comment       0x00000045       0x46 ./gecko_sdk_4.4.3/platform/Device/SiliconLabs/EFR32MG24/Source/system_efr32mg24.o
 .comment       0x00000045       0x46 ./gecko_sdk_4.4.3/platform/common/src/sl_assert.o
 .comment       0x00000045       0x46 ./gecko_sdk_4.4.3/platform/common/src/sl_slist.o
 .comment       0x00000045       0x46 ./gecko_sdk_4.4.3/platform/common/toolchain/src/sl_memory.o
 .comment       0x00000045       0x46 ./gecko_sdk_4.4.3/platform/driver/debug/src/sl_debug_swo.o
 .comment       0x00000045       0x46 ./gecko_sdk_4.4.3/platform/driver/i2cspm/src/sl_i2cspm.o
 .comment       0x00000045       0x46 ./gecko_sdk_4.4.3/platform/emlib/src/em_cmu.o
 .comment       0x00000045       0x46 ./gecko_sdk_4.4.3/platform/emlib/src/em_core.o
 .comment       0x00000045       0x46 ./gecko_sdk_4.4.3/platform/emlib/src/em_emu.o
 .comment       0x00000045       0x46 ./gecko_sdk_4.4.3/platform/emlib/src/em_gpio.o
 .comment       0x00000045       0x46 ./gecko_sdk_4.4.3/platform/emlib/src/em_i2c.o
 .comment       0x00000045       0x46 ./gecko_sdk_4.4.3/platform/emlib/src/em_iadc.o
 .comment       0x00000045       0x46 ./gecko_sdk_4.4.3/platform/emlib/src/em_prs.o
 .comment       0x00000045       0x46 ./gecko_sdk_4.4.3/platform/emlib/src/em_system.o
 .comment       0x00000045       0x46 ./gecko_sdk_4.4.3/platform/emlib/src/em_usart.o
 .comment       0x00000045       0x46 ./gecko_sdk_4.4.3/platform/peripheral/src/peripheral_sysrtc.o
 .comment       0x00000045       0x46 ./gecko_sdk_4.4.3/platform/service/device_init/src/sl_device_init_dcdc_s2.o
 .comment       0x00000045       0x46 ./gecko_sdk_4.4.3/platform/service/device_init/src/sl_device_init_emu_s2.o
 .comment       0x00000045       0x46 ./gecko_sdk_4.4.3/platform/service/device_init/src/sl_device_init_hfxo_s2.o
 .comment       0x00000045       0x46 ./gecko_sdk_4.4.3/platform/service/device_init/src/sl_device_init_lfxo_s2.o
 .comment       0x00000045       0x46 ./gecko_sdk_4.4.3/platform/service/device_init/src/sl_device_init_nvic.o
 .comment       0x00000045       0x46 ./gecko_sdk_4.4.3/platform/service/hfxo_manager/src/sl_hfxo_manager.o
 .comment       0x00000045       0x46 ./gecko_sdk_4.4.3/platform/service/hfxo_manager/src/sl_hfxo_manager_hal_s2.o
 .comment       0x00000045       0x46 ./gecko_sdk_4.4.3/platform/service/iostream/src/sl_iostream.o
 .comment       0x00000045       0x46 ./gecko_sdk_4.4.3/platform/service/iostream/src/sl_iostream_debug.o
 .comment       0x00000045       0x46 ./gecko_sdk_4.4.3/platform/service/iostream/src/sl_iostream_retarget_stdio.o
 .comment       0x00000045       0x46 ./gecko_sdk_4.4.3/platform/service/iostream/src/sl_iostream_stdlib_config.o
 .comment       0x00000045       0x46 ./gecko_sdk_4.4.3/platform/service/iostream/src/sl_iostream_swo_itm_8.o
 .comment       0x00000045       0x46 ./gecko_sdk_4.4.3/platform/service/power_manager/src/sl_power_manager.o
 .comment       0x00000045       0x46 ./gecko_sdk_4.4.3/platform/service/power_manager/src/sl_power_manager_hal_s2.o
 .comment       0x00000045       0x46 ./gecko_sdk_4.4.3/platform/service/sleeptimer/src/sl_sleeptimer.o
 .comment       0x00000045       0x46 ./gecko_sdk_4.4.3/platform/service/sleeptimer/src/sl_sleeptimer_hal_sysrtc.o
 .comment       0x00000045       0x46 ./gecko_sdk_4.4.3/platform/service/system/src/sl_system_init.o
 .comment       0x00000045       0x46 ./gecko_sdk_4.4.3/platform/service/system/src/sl_system_process_action.o
 .comment       0x00000045       0x46 ./gecko_sdk_4.4.3/platform/service/udelay/src/sl_udelay.o

.debug_line_str
                0x00000000      0x1c0
 .debug_line_str
                0x00000000       0xe7 c:/siliconlabs/simplicitystudio/v5/developer/toolchains/gnu_arm/12.2.rel1_2023.7/bin/../lib/gcc/arm-none-eabi/12.2.1/thumb/v8-m.main+fp/hard/crt0.o
 .debug_line_str
                0x000000e7       0xcd c:/siliconlabs/simplicitystudio/v5/developer/toolchains/gnu_arm/12.2.rel1_2023.7/bin/../lib/gcc/arm-none-eabi/12.2.1/thumb/v8-m.main+fp/hard\libgcc.a(_aeabi_uldivmod.o)
 .debug_line_str
                0x000001b4        0xc c:/siliconlabs/simplicitystudio/v5/developer/toolchains/gnu_arm/12.2.rel1_2023.7/bin/../lib/gcc/arm-none-eabi/12.2.1/thumb/v8-m.main+fp/hard\libgcc.a(_dvmd_tls.o)
                                 0xd1 (size before relaxing)

.debug_info     0x00000000    0x3fb36
 .debug_info    0x00000000     0x1969 ./app.o
 .debug_info    0x00001969     0x33e2 ./iadc.o
 .debug_info    0x00004d4b       0xd1 ./main.o
 .debug_info    0x00004e1c      0x162 ./thermometer.o
 .debug_info    0x00004f7e       0x86 ./autogen/sl_board_default_init.o
 .debug_info    0x00005004     0x13f9 ./autogen/sl_device_init_clocks.o
 .debug_info    0x000063fd      0x2a1 ./autogen/sl_event_handler.o
 .debug_info    0x0000669e      0x87a ./autogen/sl_i2cspm_init.o
 .debug_info    0x00006f18      0x1a7 ./autogen/sl_power_manager_handler.o
 .debug_info    0x000070bf      0x848 ./gecko_sdk_4.4.3/app/bluetooth/common/sensor_rht/sl_sensor_rht.o
 .debug_info    0x00007907      0x5c0 ./gecko_sdk_4.4.3/app/bluetooth/common/sensor_select/sl_sensor_select.o
 .debug_info    0x00007ec7      0x524 ./gecko_sdk_4.4.3/app/common/util/app_log/app_log.o
 .debug_info    0x000083eb      0x7ac ./gecko_sdk_4.4.3/app/common/util/app_timer/app_timer.o
 .debug_info    0x00008b97      0x453 ./gecko_sdk_4.4.3/hardware/board/src/sl_board_control_gpio.o
 .debug_info    0x00008fea      0x2b4 ./gecko_sdk_4.4.3/hardware/board/src/sl_board_init.o
 .debug_info    0x0000929e     0x22eb ./gecko_sdk_4.4.3/hardware/driver/mx25_flash_shutdown/src/sl_mx25_flash_shutdown_usart/sl_mx25_flash_shutdown.o
 .debug_info    0x0000b589      0xc8c ./gecko_sdk_4.4.3/hardware/driver/si70xx/src/sl_si70xx.o
 .debug_info    0x0000c215      0x377 ./gecko_sdk_4.4.3/platform/Device/SiliconLabs/EFR32MG24/Source/startup_efr32mg24.o
 .debug_info    0x0000c58c     0x23f6 ./gecko_sdk_4.4.3/platform/Device/SiliconLabs/EFR32MG24/Source/system_efr32mg24.o
 .debug_info    0x0000e982       0x7d ./gecko_sdk_4.4.3/platform/common/src/sl_assert.o
 .debug_info    0x0000e9ff      0x2f7 ./gecko_sdk_4.4.3/platform/common/src/sl_slist.o
 .debug_info    0x0000ecf6      0x1f4 ./gecko_sdk_4.4.3/platform/common/toolchain/src/sl_memory.o
 .debug_info    0x0000eeea     0x326f ./gecko_sdk_4.4.3/platform/driver/debug/src/sl_debug_swo.o
 .debug_info    0x00012159     0x20dd ./gecko_sdk_4.4.3/platform/driver/i2cspm/src/sl_i2cspm.o
 .debug_info    0x00014236     0x8d72 ./gecko_sdk_4.4.3/platform/emlib/src/em_cmu.o
 .debug_info    0x0001cfa8     0x10e5 ./gecko_sdk_4.4.3/platform/emlib/src/em_core.o
 .debug_info    0x0001e08d     0x4b28 ./gecko_sdk_4.4.3/platform/emlib/src/em_emu.o
 .debug_info    0x00022bb5     0x23bb ./gecko_sdk_4.4.3/platform/emlib/src/em_gpio.o
 .debug_info    0x00024f70      0xdc1 ./gecko_sdk_4.4.3/platform/emlib/src/em_i2c.o
 .debug_info    0x00025d31     0x2404 ./gecko_sdk_4.4.3/platform/emlib/src/em_iadc.o
 .debug_info    0x00028135     0x3c2e ./gecko_sdk_4.4.3/platform/emlib/src/em_prs.o
 .debug_info    0x0002bd63     0x1e19 ./gecko_sdk_4.4.3/platform/emlib/src/em_system.o
 .debug_info    0x0002db7c     0x461a ./gecko_sdk_4.4.3/platform/emlib/src/em_usart.o
 .debug_info    0x00032196      0xbf9 ./gecko_sdk_4.4.3/platform/peripheral/src/peripheral_sysrtc.o
 .debug_info    0x00032d8f      0x34d ./gecko_sdk_4.4.3/platform/service/device_init/src/sl_device_init_dcdc_s2.o
 .debug_info    0x000330dc      0xb34 ./gecko_sdk_4.4.3/platform/service/device_init/src/sl_device_init_emu_s2.o
 .debug_info    0x00033c10      0x87f ./gecko_sdk_4.4.3/platform/service/device_init/src/sl_device_init_hfxo_s2.o
 .debug_info    0x0003448f      0x27a ./gecko_sdk_4.4.3/platform/service/device_init/src/sl_device_init_lfxo_s2.o
 .debug_info    0x00034709      0x834 ./gecko_sdk_4.4.3/platform/service/device_init/src/sl_device_init_nvic.o
 .debug_info    0x00034f3d      0x384 ./gecko_sdk_4.4.3/platform/service/hfxo_manager/src/sl_hfxo_manager.o
 .debug_info    0x000352c1     0x1cc5 ./gecko_sdk_4.4.3/platform/service/hfxo_manager/src/sl_hfxo_manager_hal_s2.o
 .debug_info    0x00036f86      0x4a6 ./gecko_sdk_4.4.3/platform/service/iostream/src/sl_iostream.o
 .debug_info    0x0003742c      0x55a ./gecko_sdk_4.4.3/platform/service/iostream/src/sl_iostream_debug.o
 .debug_info    0x00037986      0x5f8 ./gecko_sdk_4.4.3/platform/service/iostream/src/sl_iostream_retarget_stdio.o
 .debug_info    0x00037f7e      0x83a ./gecko_sdk_4.4.3/platform/service/iostream/src/sl_iostream_stdlib_config.o
 .debug_info    0x000387b8      0x67d ./gecko_sdk_4.4.3/platform/service/iostream/src/sl_iostream_swo_itm_8.o
 .debug_info    0x00038e35      0xd72 ./gecko_sdk_4.4.3/platform/service/power_manager/src/sl_power_manager.o
 .debug_info    0x00039ba7     0x1ede ./gecko_sdk_4.4.3/platform/service/power_manager/src/sl_power_manager_hal_s2.o
 .debug_info    0x0003ba85     0x1622 ./gecko_sdk_4.4.3/platform/service/sleeptimer/src/sl_sleeptimer.o
 .debug_info    0x0003d0a7     0x282c ./gecko_sdk_4.4.3/platform/service/sleeptimer/src/sl_sleeptimer_hal_sysrtc.o
 .debug_info    0x0003f8d3       0x78 ./gecko_sdk_4.4.3/platform/service/system/src/sl_system_init.o
 .debug_info    0x0003f94b       0x6d ./gecko_sdk_4.4.3/platform/service/system/src/sl_system_process_action.o
 .debug_info    0x0003f9b8      0x158 ./gecko_sdk_4.4.3/platform/service/udelay/src/sl_udelay.o
 .debug_info    0x0003fb10       0x26 ./gecko_sdk_4.4.3/platform/service/udelay/src/sl_udelay_armv6m_gcc.o

.debug_abbrev   0x00000000     0x5fcc
 .debug_abbrev  0x00000000      0x213 ./app.o
 .debug_abbrev  0x00000213      0x2fe ./iadc.o
 .debug_abbrev  0x00000511       0x6e ./main.o
 .debug_abbrev  0x0000057f       0xed ./thermometer.o
 .debug_abbrev  0x0000066c       0x46 ./autogen/sl_board_default_init.o
 .debug_abbrev  0x000006b2       0xd3 ./autogen/sl_device_init_clocks.o
 .debug_abbrev  0x00000785       0xeb ./autogen/sl_event_handler.o
 .debug_abbrev  0x00000870      0x14b ./autogen/sl_i2cspm_init.o
 .debug_abbrev  0x000009bb       0xdd ./autogen/sl_power_manager_handler.o
 .debug_abbrev  0x00000a98      0x1d2 ./gecko_sdk_4.4.3/app/bluetooth/common/sensor_rht/sl_sensor_rht.o
 .debug_abbrev  0x00000c6a      0x104 ./gecko_sdk_4.4.3/app/bluetooth/common/sensor_select/sl_sensor_select.o
 .debug_abbrev  0x00000d6e      0x251 ./gecko_sdk_4.4.3/app/common/util/app_log/app_log.o
 .debug_abbrev  0x00000fbf      0x237 ./gecko_sdk_4.4.3/app/common/util/app_timer/app_timer.o
 .debug_abbrev  0x000011f6      0x15a ./gecko_sdk_4.4.3/hardware/board/src/sl_board_control_gpio.o
 .debug_abbrev  0x00001350       0xba ./gecko_sdk_4.4.3/hardware/board/src/sl_board_init.o
 .debug_abbrev  0x0000140a      0x1f7 ./gecko_sdk_4.4.3/hardware/driver/mx25_flash_shutdown/src/sl_mx25_flash_shutdown_usart/sl_mx25_flash_shutdown.o
 .debug_abbrev  0x00001601      0x21d ./gecko_sdk_4.4.3/hardware/driver/si70xx/src/sl_si70xx.o
 .debug_abbrev  0x0000181e      0x211 ./gecko_sdk_4.4.3/platform/Device/SiliconLabs/EFR32MG24/Source/startup_efr32mg24.o
 .debug_abbrev  0x00001a2f      0x2e8 ./gecko_sdk_4.4.3/platform/Device/SiliconLabs/EFR32MG24/Source/system_efr32mg24.o
 .debug_abbrev  0x00001d17       0x69 ./gecko_sdk_4.4.3/platform/common/src/sl_assert.o
 .debug_abbrev  0x00001d80      0x124 ./gecko_sdk_4.4.3/platform/common/src/sl_slist.o
 .debug_abbrev  0x00001ea4      0x107 ./gecko_sdk_4.4.3/platform/common/toolchain/src/sl_memory.o
 .debug_abbrev  0x00001fab      0x257 ./gecko_sdk_4.4.3/platform/driver/debug/src/sl_debug_swo.o
 .debug_abbrev  0x00002202      0x24a ./gecko_sdk_4.4.3/platform/driver/i2cspm/src/sl_i2cspm.o
 .debug_abbrev  0x0000244c      0x416 ./gecko_sdk_4.4.3/platform/emlib/src/em_cmu.o
 .debug_abbrev  0x00002862      0x2b9 ./gecko_sdk_4.4.3/platform/emlib/src/em_core.o
 .debug_abbrev  0x00002b1b      0x3b5 ./gecko_sdk_4.4.3/platform/emlib/src/em_emu.o
 .debug_abbrev  0x00002ed0      0x251 ./gecko_sdk_4.4.3/platform/emlib/src/em_gpio.o
 .debug_abbrev  0x00003121      0x2ad ./gecko_sdk_4.4.3/platform/emlib/src/em_i2c.o
 .debug_abbrev  0x000033ce      0x2f2 ./gecko_sdk_4.4.3/platform/emlib/src/em_iadc.o
 .debug_abbrev  0x000036c0      0x22f ./gecko_sdk_4.4.3/platform/emlib/src/em_prs.o
 .debug_abbrev  0x000038ef      0x22f ./gecko_sdk_4.4.3/platform/emlib/src/em_system.o
 .debug_abbrev  0x00003b1e      0x268 ./gecko_sdk_4.4.3/platform/emlib/src/em_usart.o
 .debug_abbrev  0x00003d86      0x1e9 ./gecko_sdk_4.4.3/platform/peripheral/src/peripheral_sysrtc.o
 .debug_abbrev  0x00003f6f       0xf6 ./gecko_sdk_4.4.3/platform/service/device_init/src/sl_device_init_dcdc_s2.o
 .debug_abbrev  0x00004065      0x132 ./gecko_sdk_4.4.3/platform/service/device_init/src/sl_device_init_emu_s2.o
 .debug_abbrev  0x00004197      0x153 ./gecko_sdk_4.4.3/platform/service/device_init/src/sl_device_init_hfxo_s2.o
 .debug_abbrev  0x000042ea       0xe1 ./gecko_sdk_4.4.3/platform/service/device_init/src/sl_device_init_lfxo_s2.o
 .debug_abbrev  0x000043cb      0x12c ./gecko_sdk_4.4.3/platform/service/device_init/src/sl_device_init_nvic.o
 .debug_abbrev  0x000044f7      0x1aa ./gecko_sdk_4.4.3/platform/service/hfxo_manager/src/sl_hfxo_manager.o
 .debug_abbrev  0x000046a1      0x1fe ./gecko_sdk_4.4.3/platform/service/hfxo_manager/src/sl_hfxo_manager_hal_s2.o
 .debug_abbrev  0x0000489f      0x1da ./gecko_sdk_4.4.3/platform/service/iostream/src/sl_iostream.o
 .debug_abbrev  0x00004a79      0x187 ./gecko_sdk_4.4.3/platform/service/iostream/src/sl_iostream_debug.o
 .debug_abbrev  0x00004c00      0x1aa ./gecko_sdk_4.4.3/platform/service/iostream/src/sl_iostream_retarget_stdio.o
 .debug_abbrev  0x00004daa      0x16e ./gecko_sdk_4.4.3/platform/service/iostream/src/sl_iostream_stdlib_config.o
 .debug_abbrev  0x00004f18      0x1f1 ./gecko_sdk_4.4.3/platform/service/iostream/src/sl_iostream_swo_itm_8.o
 .debug_abbrev  0x00005109      0x3a1 ./gecko_sdk_4.4.3/platform/service/power_manager/src/sl_power_manager.o
 .debug_abbrev  0x000054aa      0x2f1 ./gecko_sdk_4.4.3/platform/service/power_manager/src/sl_power_manager_hal_s2.o
 .debug_abbrev  0x0000579b      0x311 ./gecko_sdk_4.4.3/platform/service/sleeptimer/src/sl_sleeptimer.o
 .debug_abbrev  0x00005aac      0x3b2 ./gecko_sdk_4.4.3/platform/service/sleeptimer/src/sl_sleeptimer_hal_sysrtc.o
 .debug_abbrev  0x00005e5e       0x43 ./gecko_sdk_4.4.3/platform/service/system/src/sl_system_init.o
 .debug_abbrev  0x00005ea1       0x43 ./gecko_sdk_4.4.3/platform/service/system/src/sl_system_process_action.o
 .debug_abbrev  0x00005ee4       0xd4 ./gecko_sdk_4.4.3/platform/service/udelay/src/sl_udelay.o
 .debug_abbrev  0x00005fb8       0x14 ./gecko_sdk_4.4.3/platform/service/udelay/src/sl_udelay_armv6m_gcc.o

.debug_loc      0x00000000     0x5ca8
 .debug_loc     0x00000000       0xd4 ./app.o
 .debug_loc     0x000000d4      0x26d ./iadc.o
 .debug_loc     0x00000341       0x20 ./main.o
 .debug_loc     0x00000361       0x58 ./thermometer.o
 .debug_loc     0x000003b9       0x20 ./autogen/sl_device_init_clocks.o
 .debug_loc     0x000003d9       0xc0 ./autogen/sl_event_handler.o
 .debug_loc     0x00000499       0x20 ./autogen/sl_i2cspm_init.o
 .debug_loc     0x000004b9       0x70 ./autogen/sl_power_manager_handler.o
 .debug_loc     0x00000529       0x90 ./gecko_sdk_4.4.3/app/bluetooth/common/sensor_rht/sl_sensor_rht.o
 .debug_loc     0x000005b9       0x2c ./gecko_sdk_4.4.3/app/bluetooth/common/sensor_select/sl_sensor_select.o
 .debug_loc     0x000005e5      0x198 ./gecko_sdk_4.4.3/app/common/util/app_log/app_log.o
 .debug_loc     0x0000077d      0x219 ./gecko_sdk_4.4.3/app/common/util/app_timer/app_timer.o
 .debug_loc     0x00000996      0x150 ./gecko_sdk_4.4.3/hardware/board/src/sl_board_control_gpio.o
 .debug_loc     0x00000ae6       0x40 ./gecko_sdk_4.4.3/hardware/board/src/sl_board_init.o
 .debug_loc     0x00000b26       0xe8 ./gecko_sdk_4.4.3/hardware/driver/mx25_flash_shutdown/src/sl_mx25_flash_shutdown_usart/sl_mx25_flash_shutdown.o
 .debug_loc     0x00000c0e      0x2c1 ./gecko_sdk_4.4.3/hardware/driver/si70xx/src/sl_si70xx.o
 .debug_loc     0x00000ecf       0x64 ./gecko_sdk_4.4.3/platform/Device/SiliconLabs/EFR32MG24/Source/startup_efr32mg24.o
 .debug_loc     0x00000f33      0x1d0 ./gecko_sdk_4.4.3/platform/Device/SiliconLabs/EFR32MG24/Source/system_efr32mg24.o
 .debug_loc     0x00001103       0x20 ./gecko_sdk_4.4.3/platform/common/src/sl_assert.o
 .debug_loc     0x00001123      0x17c ./gecko_sdk_4.4.3/platform/common/src/sl_slist.o
 .debug_loc     0x0000129f       0x84 ./gecko_sdk_4.4.3/platform/common/toolchain/src/sl_memory.o
 .debug_loc     0x00001323      0x184 ./gecko_sdk_4.4.3/platform/driver/debug/src/sl_debug_swo.o
 .debug_loc     0x000014a7       0xe0 ./gecko_sdk_4.4.3/platform/driver/i2cspm/src/sl_i2cspm.o
 .debug_loc     0x00001587      0xcf5 ./gecko_sdk_4.4.3/platform/emlib/src/em_cmu.o
 .debug_loc     0x0000227c      0x490 ./gecko_sdk_4.4.3/platform/emlib/src/em_core.o
 .debug_loc     0x0000270c      0x600 ./gecko_sdk_4.4.3/platform/emlib/src/em_emu.o
 .debug_loc     0x00002d0c      0x27c ./gecko_sdk_4.4.3/platform/emlib/src/em_gpio.o
 .debug_loc     0x00002f88      0x25c ./gecko_sdk_4.4.3/platform/emlib/src/em_i2c.o
 .debug_loc     0x000031e4      0x501 ./gecko_sdk_4.4.3/platform/emlib/src/em_iadc.o
 .debug_loc     0x000036e5      0x244 ./gecko_sdk_4.4.3/platform/emlib/src/em_prs.o
 .debug_loc     0x00003929      0x138 ./gecko_sdk_4.4.3/platform/emlib/src/em_system.o
 .debug_loc     0x00003a61      0x44d ./gecko_sdk_4.4.3/platform/emlib/src/em_usart.o
 .debug_loc     0x00003eae      0x340 ./gecko_sdk_4.4.3/platform/peripheral/src/peripheral_sysrtc.o
 .debug_loc     0x000041ee       0x38 ./gecko_sdk_4.4.3/platform/service/device_init/src/sl_device_init_dcdc_s2.o
 .debug_loc     0x00004226       0x38 ./gecko_sdk_4.4.3/platform/service/device_init/src/sl_device_init_emu_s2.o
 .debug_loc     0x0000425e       0x39 ./gecko_sdk_4.4.3/platform/service/device_init/src/sl_device_init_hfxo_s2.o
 .debug_loc     0x00004297       0x38 ./gecko_sdk_4.4.3/platform/service/device_init/src/sl_device_init_lfxo_s2.o
 .debug_loc     0x000042cf       0x64 ./gecko_sdk_4.4.3/platform/service/device_init/src/sl_device_init_nvic.o
 .debug_loc     0x00004333      0x140 ./gecko_sdk_4.4.3/platform/service/hfxo_manager/src/sl_hfxo_manager.o
 .debug_loc     0x00004473      0x154 ./gecko_sdk_4.4.3/platform/service/hfxo_manager/src/sl_hfxo_manager_hal_s2.o
 .debug_loc     0x000045c7      0x1e4 ./gecko_sdk_4.4.3/platform/service/iostream/src/sl_iostream.o
 .debug_loc     0x000047ab       0x9c ./gecko_sdk_4.4.3/platform/service/iostream/src/sl_iostream_debug.o
 .debug_loc     0x00004847      0x16c ./gecko_sdk_4.4.3/platform/service/iostream/src/sl_iostream_retarget_stdio.o
 .debug_loc     0x000049b3       0x20 ./gecko_sdk_4.4.3/platform/service/iostream/src/sl_iostream_stdlib_config.o
 .debug_loc     0x000049d3       0xa8 ./gecko_sdk_4.4.3/platform/service/iostream/src/sl_iostream_swo_itm_8.o
 .debug_loc     0x00004a7b      0x528 ./gecko_sdk_4.4.3/platform/service/power_manager/src/sl_power_manager.o
 .debug_loc     0x00004fa3      0x1f9 ./gecko_sdk_4.4.3/platform/service/power_manager/src/sl_power_manager_hal_s2.o
 .debug_loc     0x0000519c      0x6e4 ./gecko_sdk_4.4.3/platform/service/sleeptimer/src/sl_sleeptimer.o
 .debug_loc     0x00005880      0x390 ./gecko_sdk_4.4.3/platform/service/sleeptimer/src/sl_sleeptimer_hal_sysrtc.o
 .debug_loc     0x00005c10       0x20 ./gecko_sdk_4.4.3/platform/service/system/src/sl_system_init.o
 .debug_loc     0x00005c30       0x20 ./gecko_sdk_4.4.3/platform/service/system/src/sl_system_process_action.o
 .debug_loc     0x00005c50       0x58 ./gecko_sdk_4.4.3/platform/service/udelay/src/sl_udelay.o

.debug_aranges  0x00000000     0x16d8
 .debug_aranges
                0x00000000       0x38 ./app.o
 .debug_aranges
                0x00000038       0x88 ./iadc.o
 .debug_aranges
                0x000000c0       0x20 ./main.o
 .debug_aranges
                0x000000e0       0x28 ./thermometer.o
 .debug_aranges
                0x00000108       0x20 ./autogen/sl_board_default_init.o
 .debug_aranges
                0x00000128       0x20 ./autogen/sl_device_init_clocks.o
 .debug_aranges
                0x00000148       0x70 ./autogen/sl_event_handler.o
 .debug_aranges
                0x000001b8       0x20 ./autogen/sl_i2cspm_init.o
 .debug_aranges
                0x000001d8       0x38 ./autogen/sl_power_manager_handler.o
 .debug_aranges
                0x00000210       0x30 ./gecko_sdk_4.4.3/app/bluetooth/common/sensor_rht/sl_sensor_rht.o
 .debug_aranges
                0x00000240       0x20 ./gecko_sdk_4.4.3/app/bluetooth/common/sensor_select/sl_sensor_select.o
 .debug_aranges
                0x00000260       0x88 ./gecko_sdk_4.4.3/app/common/util/app_log/app_log.o
 .debug_aranges
                0x000002e8       0x68 ./gecko_sdk_4.4.3/app/common/util/app_timer/app_timer.o
 .debug_aranges
                0x00000350       0x70 ./gecko_sdk_4.4.3/hardware/board/src/sl_board_control_gpio.o
 .debug_aranges
                0x000003c0       0x28 ./gecko_sdk_4.4.3/hardware/board/src/sl_board_init.o
 .debug_aranges
                0x000003e8       0x40 ./gecko_sdk_4.4.3/hardware/driver/mx25_flash_shutdown/src/sl_mx25_flash_shutdown_usart/sl_mx25_flash_shutdown.o
 .debug_aranges
                0x00000428       0x80 ./gecko_sdk_4.4.3/hardware/driver/si70xx/src/sl_si70xx.o
 .debug_aranges
                0x000004a8       0x30 ./gecko_sdk_4.4.3/platform/Device/SiliconLabs/EFR32MG24/Source/startup_efr32mg24.o
 .debug_aranges
                0x000004d8       0xa8 ./gecko_sdk_4.4.3/platform/Device/SiliconLabs/EFR32MG24/Source/system_efr32mg24.o
 .debug_aranges
                0x00000580       0x20 ./gecko_sdk_4.4.3/platform/common/src/sl_assert.o
 .debug_aranges
                0x000005a0       0x50 ./gecko_sdk_4.4.3/platform/common/src/sl_slist.o
 .debug_aranges
                0x000005f0       0x30 ./gecko_sdk_4.4.3/platform/common/toolchain/src/sl_memory.o
 .debug_aranges
                0x00000620       0x58 ./gecko_sdk_4.4.3/platform/driver/debug/src/sl_debug_swo.o
 .debug_aranges
                0x00000678       0x38 ./gecko_sdk_4.4.3/platform/driver/i2cspm/src/sl_i2cspm.o
 .debug_aranges
                0x000006b0      0x288 ./gecko_sdk_4.4.3/platform/emlib/src/em_cmu.o
 .debug_aranges
                0x00000938       0xe8 ./gecko_sdk_4.4.3/platform/emlib/src/em_core.o
 .debug_aranges
                0x00000a20      0x198 ./gecko_sdk_4.4.3/platform/emlib/src/em_emu.o
 .debug_aranges
                0x00000bb8       0x78 ./gecko_sdk_4.4.3/platform/emlib/src/em_gpio.o
 .debug_aranges
                0x00000c30       0x70 ./gecko_sdk_4.4.3/platform/emlib/src/em_i2c.o
 .debug_aranges
                0x00000ca0       0xe0 ./gecko_sdk_4.4.3/platform/emlib/src/em_iadc.o
 .debug_aranges
                0x00000d80       0x70 ./gecko_sdk_4.4.3/platform/emlib/src/em_prs.o
 .debug_aranges
                0x00000df0       0x80 ./gecko_sdk_4.4.3/platform/emlib/src/em_system.o
 .debug_aranges
                0x00000e70       0xc8 ./gecko_sdk_4.4.3/platform/emlib/src/em_usart.o
 .debug_aranges
                0x00000f38       0xd0 ./gecko_sdk_4.4.3/platform/peripheral/src/peripheral_sysrtc.o
 .debug_aranges
                0x00001008       0x20 ./gecko_sdk_4.4.3/platform/service/device_init/src/sl_device_init_dcdc_s2.o
 .debug_aranges
                0x00001028       0x20 ./gecko_sdk_4.4.3/platform/service/device_init/src/sl_device_init_emu_s2.o
 .debug_aranges
                0x00001048       0x20 ./gecko_sdk_4.4.3/platform/service/device_init/src/sl_device_init_hfxo_s2.o
 .debug_aranges
                0x00001068       0x20 ./gecko_sdk_4.4.3/platform/service/device_init/src/sl_device_init_lfxo_s2.o
 .debug_aranges
                0x00001088       0x28 ./gecko_sdk_4.4.3/platform/service/device_init/src/sl_device_init_nvic.o
 .debug_aranges
                0x000010b0       0x60 ./gecko_sdk_4.4.3/platform/service/hfxo_manager/src/sl_hfxo_manager.o
 .debug_aranges
                0x00001110       0x58 ./gecko_sdk_4.4.3/platform/service/hfxo_manager/src/sl_hfxo_manager_hal_s2.o
 .debug_aranges
                0x00001168       0x58 ./gecko_sdk_4.4.3/platform/service/iostream/src/sl_iostream.o
 .debug_aranges
                0x000011c0       0x30 ./gecko_sdk_4.4.3/platform/service/iostream/src/sl_iostream_debug.o
 .debug_aranges
                0x000011f0       0x60 ./gecko_sdk_4.4.3/platform/service/iostream/src/sl_iostream_retarget_stdio.o
 .debug_aranges
                0x00001250       0x20 ./gecko_sdk_4.4.3/platform/service/iostream/src/sl_iostream_stdlib_config.o
 .debug_aranges
                0x00001270       0x30 ./gecko_sdk_4.4.3/platform/service/iostream/src/sl_iostream_swo_itm_8.o
 .debug_aranges
                0x000012a0      0x110 ./gecko_sdk_4.4.3/platform/service/power_manager/src/sl_power_manager.o
 .debug_aranges
                0x000013b0       0xa0 ./gecko_sdk_4.4.3/platform/service/power_manager/src/sl_power_manager_hal_s2.o
 .debug_aranges
                0x00001450      0x138 ./gecko_sdk_4.4.3/platform/service/sleeptimer/src/sl_sleeptimer.o
 .debug_aranges
                0x00001588       0xc8 ./gecko_sdk_4.4.3/platform/service/sleeptimer/src/sl_sleeptimer_hal_sysrtc.o
 .debug_aranges
                0x00001650       0x20 ./gecko_sdk_4.4.3/platform/service/system/src/sl_system_init.o
 .debug_aranges
                0x00001670       0x20 ./gecko_sdk_4.4.3/platform/service/system/src/sl_system_process_action.o
 .debug_aranges
                0x00001690       0x28 ./gecko_sdk_4.4.3/platform/service/udelay/src/sl_udelay.o
 .debug_aranges
                0x000016b8       0x20 ./gecko_sdk_4.4.3/platform/service/udelay/src/sl_udelay_armv6m_gcc.o

.debug_ranges   0x00000000     0x1380
 .debug_ranges  0x00000000       0x28 ./app.o
 .debug_ranges  0x00000028       0x78 ./iadc.o
 .debug_ranges  0x000000a0       0x10 ./main.o
 .debug_ranges  0x000000b0       0x18 ./thermometer.o
 .debug_ranges  0x000000c8       0x10 ./autogen/sl_board_default_init.o
 .debug_ranges  0x000000d8       0x10 ./autogen/sl_device_init_clocks.o
 .debug_ranges  0x000000e8       0x60 ./autogen/sl_event_handler.o
 .debug_ranges  0x00000148       0x10 ./autogen/sl_i2cspm_init.o
 .debug_ranges  0x00000158       0x28 ./autogen/sl_power_manager_handler.o
 .debug_ranges  0x00000180       0x20 ./gecko_sdk_4.4.3/app/bluetooth/common/sensor_rht/sl_sensor_rht.o
 .debug_ranges  0x000001a0       0x10 ./gecko_sdk_4.4.3/app/bluetooth/common/sensor_select/sl_sensor_select.o
 .debug_ranges  0x000001b0       0x78 ./gecko_sdk_4.4.3/app/common/util/app_log/app_log.o
 .debug_ranges  0x00000228       0x58 ./gecko_sdk_4.4.3/app/common/util/app_timer/app_timer.o
 .debug_ranges  0x00000280       0x60 ./gecko_sdk_4.4.3/hardware/board/src/sl_board_control_gpio.o
 .debug_ranges  0x000002e0       0x18 ./gecko_sdk_4.4.3/hardware/board/src/sl_board_init.o
 .debug_ranges  0x000002f8       0x30 ./gecko_sdk_4.4.3/hardware/driver/mx25_flash_shutdown/src/sl_mx25_flash_shutdown_usart/sl_mx25_flash_shutdown.o
 .debug_ranges  0x00000328       0x70 ./gecko_sdk_4.4.3/hardware/driver/si70xx/src/sl_si70xx.o
 .debug_ranges  0x00000398       0x20 ./gecko_sdk_4.4.3/platform/Device/SiliconLabs/EFR32MG24/Source/startup_efr32mg24.o
 .debug_ranges  0x000003b8       0x98 ./gecko_sdk_4.4.3/platform/Device/SiliconLabs/EFR32MG24/Source/system_efr32mg24.o
 .debug_ranges  0x00000450       0x10 ./gecko_sdk_4.4.3/platform/common/src/sl_assert.o
 .debug_ranges  0x00000460       0x40 ./gecko_sdk_4.4.3/platform/common/src/sl_slist.o
 .debug_ranges  0x000004a0       0x20 ./gecko_sdk_4.4.3/platform/common/toolchain/src/sl_memory.o
 .debug_ranges  0x000004c0       0x48 ./gecko_sdk_4.4.3/platform/driver/debug/src/sl_debug_swo.o
 .debug_ranges  0x00000508       0x28 ./gecko_sdk_4.4.3/platform/driver/i2cspm/src/sl_i2cspm.o
 .debug_ranges  0x00000530      0x278 ./gecko_sdk_4.4.3/platform/emlib/src/em_cmu.o
 .debug_ranges  0x000007a8       0xd8 ./gecko_sdk_4.4.3/platform/emlib/src/em_core.o
 .debug_ranges  0x00000880      0x188 ./gecko_sdk_4.4.3/platform/emlib/src/em_emu.o
 .debug_ranges  0x00000a08       0x68 ./gecko_sdk_4.4.3/platform/emlib/src/em_gpio.o
 .debug_ranges  0x00000a70       0x60 ./gecko_sdk_4.4.3/platform/emlib/src/em_i2c.o
 .debug_ranges  0x00000ad0       0xd0 ./gecko_sdk_4.4.3/platform/emlib/src/em_iadc.o
 .debug_ranges  0x00000ba0       0x60 ./gecko_sdk_4.4.3/platform/emlib/src/em_prs.o
 .debug_ranges  0x00000c00       0x70 ./gecko_sdk_4.4.3/platform/emlib/src/em_system.o
 .debug_ranges  0x00000c70       0xb8 ./gecko_sdk_4.4.3/platform/emlib/src/em_usart.o
 .debug_ranges  0x00000d28       0xc0 ./gecko_sdk_4.4.3/platform/peripheral/src/peripheral_sysrtc.o
 .debug_ranges  0x00000de8       0x10 ./gecko_sdk_4.4.3/platform/service/device_init/src/sl_device_init_dcdc_s2.o
 .debug_ranges  0x00000df8       0x10 ./gecko_sdk_4.4.3/platform/service/device_init/src/sl_device_init_emu_s2.o
 .debug_ranges  0x00000e08       0x10 ./gecko_sdk_4.4.3/platform/service/device_init/src/sl_device_init_hfxo_s2.o
 .debug_ranges  0x00000e18       0x10 ./gecko_sdk_4.4.3/platform/service/device_init/src/sl_device_init_lfxo_s2.o
 .debug_ranges  0x00000e28       0x18 ./gecko_sdk_4.4.3/platform/service/device_init/src/sl_device_init_nvic.o
 .debug_ranges  0x00000e40       0x50 ./gecko_sdk_4.4.3/platform/service/hfxo_manager/src/sl_hfxo_manager.o
 .debug_ranges  0x00000e90       0x48 ./gecko_sdk_4.4.3/platform/service/hfxo_manager/src/sl_hfxo_manager_hal_s2.o
 .debug_ranges  0x00000ed8       0x48 ./gecko_sdk_4.4.3/platform/service/iostream/src/sl_iostream.o
 .debug_ranges  0x00000f20       0x20 ./gecko_sdk_4.4.3/platform/service/iostream/src/sl_iostream_debug.o
 .debug_ranges  0x00000f40       0x50 ./gecko_sdk_4.4.3/platform/service/iostream/src/sl_iostream_retarget_stdio.o
 .debug_ranges  0x00000f90       0x10 ./gecko_sdk_4.4.3/platform/service/iostream/src/sl_iostream_stdlib_config.o
 .debug_ranges  0x00000fa0       0x20 ./gecko_sdk_4.4.3/platform/service/iostream/src/sl_iostream_swo_itm_8.o
 .debug_ranges  0x00000fc0      0x118 ./gecko_sdk_4.4.3/platform/service/power_manager/src/sl_power_manager.o
 .debug_ranges  0x000010d8       0x90 ./gecko_sdk_4.4.3/platform/service/power_manager/src/sl_power_manager_hal_s2.o
 .debug_ranges  0x00001168      0x128 ./gecko_sdk_4.4.3/platform/service/sleeptimer/src/sl_sleeptimer.o
 .debug_ranges  0x00001290       0xb8 ./gecko_sdk_4.4.3/platform/service/sleeptimer/src/sl_sleeptimer_hal_sysrtc.o
 .debug_ranges  0x00001348       0x10 ./gecko_sdk_4.4.3/platform/service/system/src/sl_system_init.o
 .debug_ranges  0x00001358       0x10 ./gecko_sdk_4.4.3/platform/service/system/src/sl_system_process_action.o
 .debug_ranges  0x00001368       0x18 ./gecko_sdk_4.4.3/platform/service/udelay/src/sl_udelay.o

.debug_line     0x00000000    0x1111c
 .debug_line    0x00000000      0x307 ./app.o
 .debug_line    0x00000307      0x551 ./iadc.o
 .debug_line    0x00000858      0x11c ./main.o
 .debug_line    0x00000974      0x202 ./thermometer.o
 .debug_line    0x00000b76       0x55 ./autogen/sl_board_default_init.o
 .debug_line    0x00000bcb      0x24a ./autogen/sl_device_init_clocks.o
 .debug_line    0x00000e15      0x5ff ./autogen/sl_event_handler.o
 .debug_line    0x00001414      0x23a ./autogen/sl_i2cspm_init.o
 .debug_line    0x0000164e      0x276 ./autogen/sl_power_manager_handler.o
 .debug_line    0x000018c4      0x488 ./gecko_sdk_4.4.3/app/bluetooth/common/sensor_rht/sl_sensor_rht.o
 .debug_line    0x00001d4c      0x2af ./gecko_sdk_4.4.3/app/bluetooth/common/sensor_select/sl_sensor_select.o
 .debug_line    0x00001ffb      0x468 ./gecko_sdk_4.4.3/app/common/util/app_log/app_log.o
 .debug_line    0x00002463      0x4f4 ./gecko_sdk_4.4.3/app/common/util/app_timer/app_timer.o
 .debug_line    0x00002957      0x3e2 ./gecko_sdk_4.4.3/hardware/board/src/sl_board_control_gpio.o
 .debug_line    0x00002d39      0x239 ./gecko_sdk_4.4.3/hardware/board/src/sl_board_init.o
 .debug_line    0x00002f72      0x436 ./gecko_sdk_4.4.3/hardware/driver/mx25_flash_shutdown/src/sl_mx25_flash_shutdown_usart/sl_mx25_flash_shutdown.o
 .debug_line    0x000033a8      0x550 ./gecko_sdk_4.4.3/hardware/driver/si70xx/src/sl_si70xx.o
 .debug_line    0x000038f8      0x2bb ./gecko_sdk_4.4.3/platform/Device/SiliconLabs/EFR32MG24/Source/startup_efr32mg24.o
 .debug_line    0x00003bb3      0x559 ./gecko_sdk_4.4.3/platform/Device/SiliconLabs/EFR32MG24/Source/system_efr32mg24.o
 .debug_line    0x0000410c       0x71 ./gecko_sdk_4.4.3/platform/common/src/sl_assert.o
 .debug_line    0x0000417d      0x25d ./gecko_sdk_4.4.3/platform/common/src/sl_slist.o
 .debug_line    0x000043da      0x295 ./gecko_sdk_4.4.3/platform/common/toolchain/src/sl_memory.o
 .debug_line    0x0000466f      0x55f ./gecko_sdk_4.4.3/platform/driver/debug/src/sl_debug_swo.o
 .debug_line    0x00004bce      0x4e0 ./gecko_sdk_4.4.3/platform/driver/i2cspm/src/sl_i2cspm.o
 .debug_line    0x000050ae     0x2343 ./gecko_sdk_4.4.3/platform/emlib/src/em_cmu.o
 .debug_line    0x000073f1      0x895 ./gecko_sdk_4.4.3/platform/emlib/src/em_core.o
 .debug_line    0x00007c86      0xbc8 ./gecko_sdk_4.4.3/platform/emlib/src/em_emu.o
 .debug_line    0x0000884e      0x657 ./gecko_sdk_4.4.3/platform/emlib/src/em_gpio.o
 .debug_line    0x00008ea5      0x812 ./gecko_sdk_4.4.3/platform/emlib/src/em_i2c.o
 .debug_line    0x000096b7      0xf6e ./gecko_sdk_4.4.3/platform/emlib/src/em_iadc.o
 .debug_line    0x0000a625      0x586 ./gecko_sdk_4.4.3/platform/emlib/src/em_prs.o
 .debug_line    0x0000abab      0x424 ./gecko_sdk_4.4.3/platform/emlib/src/em_system.o
 .debug_line    0x0000afcf      0x98b ./gecko_sdk_4.4.3/platform/emlib/src/em_usart.o
 .debug_line    0x0000b95a      0x6b0 ./gecko_sdk_4.4.3/platform/peripheral/src/peripheral_sysrtc.o
 .debug_line    0x0000c00a      0x1ff ./gecko_sdk_4.4.3/platform/service/device_init/src/sl_device_init_dcdc_s2.o
 .debug_line    0x0000c209      0x263 ./gecko_sdk_4.4.3/platform/service/device_init/src/sl_device_init_emu_s2.o
 .debug_line    0x0000c46c      0x2c4 ./gecko_sdk_4.4.3/platform/service/device_init/src/sl_device_init_hfxo_s2.o
 .debug_line    0x0000c730      0x204 ./gecko_sdk_4.4.3/platform/service/device_init/src/sl_device_init_lfxo_s2.o
 .debug_line    0x0000c934      0x2ba ./gecko_sdk_4.4.3/platform/service/device_init/src/sl_device_init_nvic.o
 .debug_line    0x0000cbee      0x4b7 ./gecko_sdk_4.4.3/platform/service/hfxo_manager/src/sl_hfxo_manager.o
 .debug_line    0x0000d0a5      0x50e ./gecko_sdk_4.4.3/platform/service/hfxo_manager/src/sl_hfxo_manager_hal_s2.o
 .debug_line    0x0000d5b3      0x47c ./gecko_sdk_4.4.3/platform/service/iostream/src/sl_iostream.o
 .debug_line    0x0000da2f      0x31a ./gecko_sdk_4.4.3/platform/service/iostream/src/sl_iostream_debug.o
 .debug_line    0x0000dd49      0x3b6 ./gecko_sdk_4.4.3/platform/service/iostream/src/sl_iostream_retarget_stdio.o
 .debug_line    0x0000e0ff      0x20c ./gecko_sdk_4.4.3/platform/service/iostream/src/sl_iostream_stdlib_config.o
 .debug_line    0x0000e30b      0x458 ./gecko_sdk_4.4.3/platform/service/iostream/src/sl_iostream_swo_itm_8.o
 .debug_line    0x0000e763      0xa2c ./gecko_sdk_4.4.3/platform/service/power_manager/src/sl_power_manager.o
 .debug_line    0x0000f18f      0x801 ./gecko_sdk_4.4.3/platform/service/power_manager/src/sl_power_manager_hal_s2.o
 .debug_line    0x0000f990      0xc9d ./gecko_sdk_4.4.3/platform/service/sleeptimer/src/sl_sleeptimer.o
 .debug_line    0x0001062d      0x6ad ./gecko_sdk_4.4.3/platform/service/sleeptimer/src/sl_sleeptimer_hal_sysrtc.o
 .debug_line    0x00010cda       0xbb ./gecko_sdk_4.4.3/platform/service/system/src/sl_system_init.o
 .debug_line    0x00010d95       0xc4 ./gecko_sdk_4.4.3/platform/service/system/src/sl_system_process_action.o
 .debug_line    0x00010e59      0x246 ./gecko_sdk_4.4.3/platform/service/udelay/src/sl_udelay.o
 .debug_line    0x0001109f       0x7d ./gecko_sdk_4.4.3/platform/service/udelay/src/sl_udelay_armv6m_gcc.o

.debug_str      0x00000000    0x1117f
 .debug_str     0x00000000     0x1137 ./app.o
                               0x12f6 (size before relaxing)
 .debug_str     0x00001137     0x2420 ./iadc.o
                               0x35e9 (size before relaxing)
 .debug_str     0x00003557       0x4e ./main.o
                                0x229 (size before relaxing)
 .debug_str     0x000035a5       0x42 ./thermometer.o
                                0x259 (size before relaxing)
 .debug_str     0x000035e7       0x39 ./autogen/sl_board_default_init.o
                                0x1ed (size before relaxing)
 .debug_str     0x00003620      0x941 ./autogen/sl_device_init_clocks.o
                                0xe0f (size before relaxing)
 .debug_str     0x00003f61      0x27f ./autogen/sl_event_handler.o
                                0x474 (size before relaxing)
 .debug_str     0x000041e0      0x284 ./autogen/sl_i2cspm_init.o
                                0xa67 (size before relaxing)
 .debug_str     0x00004464      0x198 ./autogen/sl_power_manager_handler.o
                                0x37b (size before relaxing)
 .debug_str     0x000045fc      0x1f3 ./gecko_sdk_4.4.3/app/bluetooth/common/sensor_rht/sl_sensor_rht.o
                                0x701 (size before relaxing)
 .debug_str     0x000047ef       0x4e ./gecko_sdk_4.4.3/app/bluetooth/common/sensor_select/sl_sensor_select.o
                                0x5d7 (size before relaxing)
 .debug_str     0x0000483d      0x247 ./gecko_sdk_4.4.3/app/common/util/app_log/app_log.o
                                0x4e1 (size before relaxing)
 .debug_str     0x00004a84      0x3a0 ./gecko_sdk_4.4.3/app/common/util/app_timer/app_timer.o
                                0x6e0 (size before relaxing)
 .debug_str     0x00004e24      0x1a4 ./gecko_sdk_4.4.3/hardware/board/src/sl_board_control_gpio.o
                                0x6c6 (size before relaxing)
 .debug_str     0x00004fc8       0x52 ./gecko_sdk_4.4.3/hardware/board/src/sl_board_init.o
                                0x6ca (size before relaxing)
 .debug_str     0x0000501a      0x5be ./gecko_sdk_4.4.3/hardware/driver/mx25_flash_shutdown/src/sl_mx25_flash_shutdown_usart/sl_mx25_flash_shutdown.o
                               0x1d4f (size before relaxing)
 .debug_str     0x000055d8      0x2d8 ./gecko_sdk_4.4.3/hardware/driver/si70xx/src/sl_si70xx.o
                                0x803 (size before relaxing)
 .debug_str     0x000058b0      0x1a9 ./gecko_sdk_4.4.3/platform/Device/SiliconLabs/EFR32MG24/Source/startup_efr32mg24.o
                                0x37d (size before relaxing)
 .debug_str     0x00005a59      0x60b ./gecko_sdk_4.4.3/platform/Device/SiliconLabs/EFR32MG24/Source/system_efr32mg24.o
                               0x176f (size before relaxing)
 .debug_str     0x00006064       0x3d ./gecko_sdk_4.4.3/platform/common/src/sl_assert.o
                                0x181 (size before relaxing)
 .debug_str     0x000060a1       0xff ./gecko_sdk_4.4.3/platform/common/src/sl_slist.o
                                0x2d2 (size before relaxing)
 .debug_str     0x000061a0       0xd7 ./gecko_sdk_4.4.3/platform/common/toolchain/src/sl_memory.o
                                0x2bb (size before relaxing)
 .debug_str     0x00006277      0x382 ./gecko_sdk_4.4.3/platform/driver/debug/src/sl_debug_swo.o
                               0x217d (size before relaxing)
 .debug_str     0x000065f9       0x8d ./gecko_sdk_4.4.3/platform/driver/i2cspm/src/sl_i2cspm.o
                               0x1a90 (size before relaxing)
 .debug_str     0x00006686     0x40c6 ./gecko_sdk_4.4.3/platform/emlib/src/em_cmu.o
                               0x655b (size before relaxing)
 .debug_str     0x0000a74c      0x2f2 ./gecko_sdk_4.4.3/platform/emlib/src/em_core.o
                                0xb2b (size before relaxing)
 .debug_str     0x0000aa3e      0xc71 ./gecko_sdk_4.4.3/platform/emlib/src/em_emu.o
                               0x2dc9 (size before relaxing)
 .debug_str     0x0000b6af       0xe6 ./gecko_sdk_4.4.3/platform/emlib/src/em_gpio.o
                               0x16b1 (size before relaxing)
 .debug_str     0x0000b795      0x1de ./gecko_sdk_4.4.3/platform/emlib/src/em_i2c.o
                                0xd1b (size before relaxing)
 .debug_str     0x0000b973      0x32a ./gecko_sdk_4.4.3/platform/emlib/src/em_iadc.o
                               0x26a0 (size before relaxing)
 .debug_str     0x0000bc9d     0x16e9 ./gecko_sdk_4.4.3/platform/emlib/src/em_prs.o
                               0x4c14 (size before relaxing)
 .debug_str     0x0000d386      0x2d1 ./gecko_sdk_4.4.3/platform/emlib/src/em_system.o
                               0x1555 (size before relaxing)
 .debug_str     0x0000d657      0x55d ./gecko_sdk_4.4.3/platform/emlib/src/em_usart.o
                               0x4555 (size before relaxing)
 .debug_str     0x0000dbb4      0x68b ./gecko_sdk_4.4.3/platform/peripheral/src/peripheral_sysrtc.o
                                0xaf0 (size before relaxing)
 .debug_str     0x0000e23f       0x52 ./gecko_sdk_4.4.3/platform/service/device_init/src/sl_device_init_dcdc_s2.o
                                0x8e8 (size before relaxing)
 .debug_str     0x0000e291       0x5a ./gecko_sdk_4.4.3/platform/service/device_init/src/sl_device_init_emu_s2.o
                                0x93f (size before relaxing)
 .debug_str     0x0000e2eb      0x508 ./gecko_sdk_4.4.3/platform/service/device_init/src/sl_device_init_hfxo_s2.o
                                0xbf9 (size before relaxing)
 .debug_str     0x0000e7f3      0x1c7 ./gecko_sdk_4.4.3/platform/service/device_init/src/sl_device_init_lfxo_s2.o
                                0x4b5 (size before relaxing)
 .debug_str     0x0000e9ba       0x62 ./gecko_sdk_4.4.3/platform/service/device_init/src/sl_device_init_nvic.o
                                0x821 (size before relaxing)
 .debug_str     0x0000ea1c      0x370 ./gecko_sdk_4.4.3/platform/service/hfxo_manager/src/sl_hfxo_manager.o
                                0x617 (size before relaxing)
 .debug_str     0x0000ed8c      0x15c ./gecko_sdk_4.4.3/platform/service/hfxo_manager/src/sl_hfxo_manager_hal_s2.o
                               0x15d2 (size before relaxing)
 .debug_str     0x0000eee8      0x133 ./gecko_sdk_4.4.3/platform/service/iostream/src/sl_iostream.o
                                0x3df (size before relaxing)
 .debug_str     0x0000f01b      0x734 ./gecko_sdk_4.4.3/platform/service/iostream/src/sl_iostream_debug.o
                                0xa06 (size before relaxing)
 .debug_str     0x0000f74f      0x173 ./gecko_sdk_4.4.3/platform/service/iostream/src/sl_iostream_retarget_stdio.o
                                0x417 (size before relaxing)
 .debug_str     0x0000f8c2      0x32a ./gecko_sdk_4.4.3/platform/service/iostream/src/sl_iostream_stdlib_config.o
                                0x566 (size before relaxing)
 .debug_str     0x0000fbec      0x231 ./gecko_sdk_4.4.3/platform/service/iostream/src/sl_iostream_swo_itm_8.o
                                0x5c4 (size before relaxing)
 .debug_str     0x0000fe1d      0x9f4 ./gecko_sdk_4.4.3/platform/service/power_manager/src/sl_power_manager.o
                               0x110b (size before relaxing)
 .debug_str     0x00010811      0x204 ./gecko_sdk_4.4.3/platform/service/power_manager/src/sl_power_manager_hal_s2.o
                               0x158d (size before relaxing)
 .debug_str     0x00010a15      0x513 ./gecko_sdk_4.4.3/platform/service/sleeptimer/src/sl_sleeptimer.o
                               0x1001 (size before relaxing)
 .debug_str     0x00010f28      0x102 ./gecko_sdk_4.4.3/platform/service/sleeptimer/src/sl_sleeptimer_hal_sysrtc.o
                               0x343e (size before relaxing)
 .debug_str     0x0001102a       0x45 ./gecko_sdk_4.4.3/platform/service/system/src/sl_system_init.o
                                0x1d7 (size before relaxing)
 .debug_str     0x0001106f       0x4f ./gecko_sdk_4.4.3/platform/service/system/src/sl_system_process_action.o
                                0x204 (size before relaxing)
 .debug_str     0x000110be       0x68 ./gecko_sdk_4.4.3/platform/service/udelay/src/sl_udelay.o
                                0x276 (size before relaxing)
 .debug_str     0x00011126       0x59 ./gecko_sdk_4.4.3/platform/service/udelay/src/sl_udelay_armv6m_gcc.o
                                 0x8e (size before relaxing)

.debug_frame    0x00000000     0x43cc
 .debug_frame   0x00000000       0x7c ./app.o
 .debug_frame   0x0000007c      0x174 ./iadc.o
 .debug_frame   0x000001f0       0x28 ./main.o
 .debug_frame   0x00000218       0x44 ./thermometer.o
 .debug_frame   0x0000025c       0x20 ./autogen/sl_board_default_init.o
 .debug_frame   0x0000027c       0x28 ./autogen/sl_device_init_clocks.o
 .debug_frame   0x000002a4       0xf0 ./autogen/sl_event_handler.o
 .debug_frame   0x00000394       0x28 ./autogen/sl_i2cspm_init.o
 .debug_frame   0x000003bc       0x68 ./autogen/sl_power_manager_handler.o
 .debug_frame   0x00000424       0x60 ./gecko_sdk_4.4.3/app/bluetooth/common/sensor_rht/sl_sensor_rht.o
 .debug_frame   0x00000484       0x28 ./gecko_sdk_4.4.3/app/bluetooth/common/sensor_select/sl_sensor_select.o
 .debug_frame   0x000004ac      0x140 ./gecko_sdk_4.4.3/app/common/util/app_log/app_log.o
 .debug_frame   0x000005ec      0x130 ./gecko_sdk_4.4.3/app/common/util/app_timer/app_timer.o
 .debug_frame   0x0000071c      0x108 ./gecko_sdk_4.4.3/hardware/board/src/sl_board_control_gpio.o
 .debug_frame   0x00000824       0x40 ./gecko_sdk_4.4.3/hardware/board/src/sl_board_init.o
 .debug_frame   0x00000864       0x98 ./gecko_sdk_4.4.3/hardware/driver/mx25_flash_shutdown/src/sl_mx25_flash_shutdown_usart/sl_mx25_flash_shutdown.o
 .debug_frame   0x000008fc      0x174 ./gecko_sdk_4.4.3/hardware/driver/si70xx/src/sl_si70xx.o
 .debug_frame   0x00000a70       0x54 ./gecko_sdk_4.4.3/platform/Device/SiliconLabs/EFR32MG24/Source/startup_efr32mg24.o
 .debug_frame   0x00000ac4      0x18c ./gecko_sdk_4.4.3/platform/Device/SiliconLabs/EFR32MG24/Source/system_efr32mg24.o
 .debug_frame   0x00000c50       0x24 ./gecko_sdk_4.4.3/platform/common/src/sl_assert.o
 .debug_frame   0x00000c74       0xd0 ./gecko_sdk_4.4.3/platform/common/src/sl_slist.o
 .debug_frame   0x00000d44       0x58 ./gecko_sdk_4.4.3/platform/common/toolchain/src/sl_memory.o
 .debug_frame   0x00000d9c       0xdc ./gecko_sdk_4.4.3/platform/driver/debug/src/sl_debug_swo.o
 .debug_frame   0x00000e78       0x80 ./gecko_sdk_4.4.3/platform/driver/i2cspm/src/sl_i2cspm.o
 .debug_frame   0x00000ef8      0x7d8 ./gecko_sdk_4.4.3/platform/emlib/src/em_cmu.o
 .debug_frame   0x000016d0      0x2a0 ./gecko_sdk_4.4.3/platform/emlib/src/em_core.o
 .debug_frame   0x00001970      0x454 ./gecko_sdk_4.4.3/platform/emlib/src/em_emu.o
 .debug_frame   0x00001dc4      0x154 ./gecko_sdk_4.4.3/platform/emlib/src/em_gpio.o
 .debug_frame   0x00001f18      0x144 ./gecko_sdk_4.4.3/platform/emlib/src/em_i2c.o
 .debug_frame   0x0000205c      0x2ac ./gecko_sdk_4.4.3/platform/emlib/src/em_iadc.o
 .debug_frame   0x00002308      0x138 ./gecko_sdk_4.4.3/platform/emlib/src/em_prs.o
 .debug_frame   0x00002440      0x128 ./gecko_sdk_4.4.3/platform/emlib/src/em_system.o
 .debug_frame   0x00002568      0x25c ./gecko_sdk_4.4.3/platform/emlib/src/em_usart.o
 .debug_frame   0x000027c4      0x238 ./gecko_sdk_4.4.3/platform/peripheral/src/peripheral_sysrtc.o
 .debug_frame   0x000029fc       0x2c ./gecko_sdk_4.4.3/platform/service/device_init/src/sl_device_init_dcdc_s2.o
 .debug_frame   0x00002a28       0x2c ./gecko_sdk_4.4.3/platform/service/device_init/src/sl_device_init_emu_s2.o
 .debug_frame   0x00002a54       0x30 ./gecko_sdk_4.4.3/platform/service/device_init/src/sl_device_init_hfxo_s2.o
 .debug_frame   0x00002a84       0x30 ./gecko_sdk_4.4.3/platform/service/device_init/src/sl_device_init_lfxo_s2.o
 .debug_frame   0x00002ab4       0x44 ./gecko_sdk_4.4.3/platform/service/device_init/src/sl_device_init_nvic.o
 .debug_frame   0x00002af8       0xec ./gecko_sdk_4.4.3/platform/service/hfxo_manager/src/sl_hfxo_manager.o
 .debug_frame   0x00002be4       0xd4 ./gecko_sdk_4.4.3/platform/service/hfxo_manager/src/sl_hfxo_manager_hal_s2.o
 .debug_frame   0x00002cb8      0x108 ./gecko_sdk_4.4.3/platform/service/iostream/src/sl_iostream.o
 .debug_frame   0x00002dc0       0x60 ./gecko_sdk_4.4.3/platform/service/iostream/src/sl_iostream_debug.o
 .debug_frame   0x00002e20       0xe4 ./gecko_sdk_4.4.3/platform/service/iostream/src/sl_iostream_retarget_stdio.o
 .debug_frame   0x00002f04       0x28 ./gecko_sdk_4.4.3/platform/service/iostream/src/sl_iostream_stdlib_config.o
 .debug_frame   0x00002f2c       0x64 ./gecko_sdk_4.4.3/platform/service/iostream/src/sl_iostream_swo_itm_8.o
 .debug_frame   0x00002f90      0x314 ./gecko_sdk_4.4.3/platform/service/power_manager/src/sl_power_manager.o
 .debug_frame   0x000032a4      0x1a8 ./gecko_sdk_4.4.3/platform/service/power_manager/src/sl_power_manager_hal_s2.o
 .debug_frame   0x0000344c      0x424 ./gecko_sdk_4.4.3/platform/service/sleeptimer/src/sl_sleeptimer.o
 .debug_frame   0x00003870      0x238 ./gecko_sdk_4.4.3/platform/service/sleeptimer/src/sl_sleeptimer_hal_sysrtc.o
 .debug_frame   0x00003aa8       0x28 ./gecko_sdk_4.4.3/platform/service/system/src/sl_system_init.o
 .debug_frame   0x00003ad0       0x28 ./gecko_sdk_4.4.3/platform/service/system/src/sl_system_process_action.o
 .debug_frame   0x00003af8       0x44 ./gecko_sdk_4.4.3/platform/service/udelay/src/sl_udelay.o
 .debug_frame   0x00003b3c       0x2c c:/siliconlabs/simplicitystudio/v5/developer/toolchains/gnu_arm/12.2.rel1_2023.7/bin/../lib/gcc/arm-none-eabi/12.2.1/thumb/v8-m.main+fp/hard\libgcc.a(_aeabi_uldivmod.o)
 .debug_frame   0x00003b68       0x38 c:/siliconlabs/simplicitystudio/v5/developer/toolchains/gnu_arm/12.2.rel1_2023.7/bin/../lib/gcc/arm-none-eabi/12.2.1/thumb/v8-m.main+fp/hard\libgcc.a(_udivmoddi4.o)
 .debug_frame   0x00003ba0       0x28 c:/siliconlabs/simplicitystudio/v5/developer/toolchains/gnu_arm/12.2.rel1_2023.7/bin/../lib/gcc/arm-none-eabi/12.2.1/thumb/v8-m.main+fp/hard\libc_nano.a(libc_a-exit.o)
 .debug_frame   0x00003bc8      0x144 c:/siliconlabs/simplicitystudio/v5/developer/toolchains/gnu_arm/12.2.rel1_2023.7/bin/../lib/gcc/arm-none-eabi/12.2.1/thumb/v8-m.main+fp/hard\libc_nano.a(libc_a-findfp.o)
 .debug_frame   0x00003d0c       0x34 c:/siliconlabs/simplicitystudio/v5/developer/toolchains/gnu_arm/12.2.rel1_2023.7/bin/../lib/gcc/arm-none-eabi/12.2.1/thumb/v8-m.main+fp/hard\libc_nano.a(libc_a-fwalk.o)
 .debug_frame   0x00003d40       0x38 c:/siliconlabs/simplicitystudio/v5/developer/toolchains/gnu_arm/12.2.rel1_2023.7/bin/../lib/gcc/arm-none-eabi/12.2.1/thumb/v8-m.main+fp/hard\libc_nano.a(libc_a-setvbuf.o)
 .debug_frame   0x00003d78       0x88 c:/siliconlabs/simplicitystudio/v5/developer/toolchains/gnu_arm/12.2.rel1_2023.7/bin/../lib/gcc/arm-none-eabi/12.2.1/thumb/v8-m.main+fp/hard\libc_nano.a(libc_a-stdio.o)
 .debug_frame   0x00003e00       0x30 c:/siliconlabs/simplicitystudio/v5/developer/toolchains/gnu_arm/12.2.rel1_2023.7/bin/../lib/gcc/arm-none-eabi/12.2.1/thumb/v8-m.main+fp/hard\libc_nano.a(libc_a-vprintf.o)
 .debug_frame   0x00003e30       0x20 c:/siliconlabs/simplicitystudio/v5/developer/toolchains/gnu_arm/12.2.rel1_2023.7/bin/../lib/gcc/arm-none-eabi/12.2.1/thumb/v8-m.main+fp/hard\libc_nano.a(libc_a-memset.o)
 .debug_frame   0x00003e50       0x2c c:/siliconlabs/simplicitystudio/v5/developer/toolchains/gnu_arm/12.2.rel1_2023.7/bin/../lib/gcc/arm-none-eabi/12.2.1/thumb/v8-m.main+fp/hard\libc_nano.a(libc_a-closer.o)
 .debug_frame   0x00003e7c       0x38 c:/siliconlabs/simplicitystudio/v5/developer/toolchains/gnu_arm/12.2.rel1_2023.7/bin/../lib/gcc/arm-none-eabi/12.2.1/thumb/v8-m.main+fp/hard\libc_nano.a(libc_a-reent.o)
 .debug_frame   0x00003eb4       0x2c c:/siliconlabs/simplicitystudio/v5/developer/toolchains/gnu_arm/12.2.rel1_2023.7/bin/../lib/gcc/arm-none-eabi/12.2.1/thumb/v8-m.main+fp/hard\libc_nano.a(libc_a-lseekr.o)
 .debug_frame   0x00003ee0       0x2c c:/siliconlabs/simplicitystudio/v5/developer/toolchains/gnu_arm/12.2.rel1_2023.7/bin/../lib/gcc/arm-none-eabi/12.2.1/thumb/v8-m.main+fp/hard\libc_nano.a(libc_a-readr.o)
 .debug_frame   0x00003f0c       0x2c c:/siliconlabs/simplicitystudio/v5/developer/toolchains/gnu_arm/12.2.rel1_2023.7/bin/../lib/gcc/arm-none-eabi/12.2.1/thumb/v8-m.main+fp/hard\libc_nano.a(libc_a-writer.o)
 .debug_frame   0x00003f38       0x2c c:/siliconlabs/simplicitystudio/v5/developer/toolchains/gnu_arm/12.2.rel1_2023.7/bin/../lib/gcc/arm-none-eabi/12.2.1/thumb/v8-m.main+fp/hard\libc_nano.a(libc_a-init.o)
 .debug_frame   0x00003f64       0xb0 c:/siliconlabs/simplicitystudio/v5/developer/toolchains/gnu_arm/12.2.rel1_2023.7/bin/../lib/gcc/arm-none-eabi/12.2.1/thumb/v8-m.main+fp/hard\libc_nano.a(libc_a-lock.o)
 .debug_frame   0x00004014       0x38 c:/siliconlabs/simplicitystudio/v5/developer/toolchains/gnu_arm/12.2.rel1_2023.7/bin/../lib/gcc/arm-none-eabi/12.2.1/thumb/v8-m.main+fp/hard\libc_nano.a(libc_a-freer.o)
 .debug_frame   0x0000404c       0x30 c:/siliconlabs/simplicitystudio/v5/developer/toolchains/gnu_arm/12.2.rel1_2023.7/bin/../lib/gcc/arm-none-eabi/12.2.1/thumb/v8-m.main+fp/hard\libc_nano.a(libc_a-malloc.o)
 .debug_frame   0x0000407c       0x4c c:/siliconlabs/simplicitystudio/v5/developer/toolchains/gnu_arm/12.2.rel1_2023.7/bin/../lib/gcc/arm-none-eabi/12.2.1/thumb/v8-m.main+fp/hard\libc_nano.a(libc_a-mallocr.o)
 .debug_frame   0x000040c8       0x30 c:/siliconlabs/simplicitystudio/v5/developer/toolchains/gnu_arm/12.2.rel1_2023.7/bin/../lib/gcc/arm-none-eabi/12.2.1/thumb/v8-m.main+fp/hard\libc_nano.a(libc_a-mlock.o)
 .debug_frame   0x000040f8       0xa8 c:/siliconlabs/simplicitystudio/v5/developer/toolchains/gnu_arm/12.2.rel1_2023.7/bin/../lib/gcc/arm-none-eabi/12.2.1/thumb/v8-m.main+fp/hard\libc_nano.a(libc_a-nano-vfprintf.o)
 .debug_frame   0x000041a0       0x60 c:/siliconlabs/simplicitystudio/v5/developer/toolchains/gnu_arm/12.2.rel1_2023.7/bin/../lib/gcc/arm-none-eabi/12.2.1/thumb/v8-m.main+fp/hard\libc_nano.a(libc_a-nano-vfprintf_i.o)
 .debug_frame   0x00004200       0x5c c:/siliconlabs/simplicitystudio/v5/developer/toolchains/gnu_arm/12.2.rel1_2023.7/bin/../lib/gcc/arm-none-eabi/12.2.1/thumb/v8-m.main+fp/hard\libc_nano.a(libc_a-fflush.o)
 .debug_frame   0x0000425c       0x58 c:/siliconlabs/simplicitystudio/v5/developer/toolchains/gnu_arm/12.2.rel1_2023.7/bin/../lib/gcc/arm-none-eabi/12.2.1/thumb/v8-m.main+fp/hard\libc_nano.a(libc_a-makebuf.o)
 .debug_frame   0x000042b4       0x40 c:/siliconlabs/simplicitystudio/v5/developer/toolchains/gnu_arm/12.2.rel1_2023.7/bin/../lib/gcc/arm-none-eabi/12.2.1/thumb/v8-m.main+fp/hard\libc_nano.a(libc_a-wbuf.o)
 .debug_frame   0x000042f4       0x2c c:/siliconlabs/simplicitystudio/v5/developer/toolchains/gnu_arm/12.2.rel1_2023.7/bin/../lib/gcc/arm-none-eabi/12.2.1/thumb/v8-m.main+fp/hard\libc_nano.a(libc_a-wsetup.o)
 .debug_frame   0x00004320       0x2c c:/siliconlabs/simplicitystudio/v5/developer/toolchains/gnu_arm/12.2.rel1_2023.7/bin/../lib/gcc/arm-none-eabi/12.2.1/thumb/v8-m.main+fp/hard\libc_nano.a(libc_a-fstatr.o)
 .debug_frame   0x0000434c       0x2c c:/siliconlabs/simplicitystudio/v5/developer/toolchains/gnu_arm/12.2.rel1_2023.7/bin/../lib/gcc/arm-none-eabi/12.2.1/thumb/v8-m.main+fp/hard\libc_nano.a(libc_a-isattyr.o)
 .debug_frame   0x00004378       0x2c c:/siliconlabs/simplicitystudio/v5/developer/toolchains/gnu_arm/12.2.rel1_2023.7/bin/../lib/gcc/arm-none-eabi/12.2.1/thumb/v8-m.main+fp/hard\libc_nano.a(libc_a-sbrkr.o)
 .debug_frame   0x000043a4       0x28 c:/siliconlabs/simplicitystudio/v5/developer/toolchains/gnu_arm/12.2.rel1_2023.7/bin/../lib/gcc/arm-none-eabi/12.2.1/thumb/v8-m.main+fp/hard\libc_nano.a(libc_a-memchr-stub.o)
